(dp0
S'lh_poems/Let_America_Be_America_Again.txt'
p1
(lp2
(S'A'
p3
Vagain
p4
tp5
a(S'B'
p6
Vbe
p7
tp8
a(g3
Vplain
p9
tp10
a(g6
Vfree
p11
tp12
a(S'C'
p13
Vdreamed
p14
tp15
a(S'D'
p16
Vlove
p17
tp18
a(S'E'
p19
Vscheme
p20
tp21
a(g16
Vabove
p22
tp23
a(S'F'
p24
Vwreath,
p25
tp26
a(S'G'
p27
Vfree,
p28
tp29
a(S'H'
p30
Vbreathe
p31
tp32
a(g6
Vfree
p33
tp34
a(S'I'
p35
Vdark
p36
tp37
a(S'J'
p38
Vstars
p39
tp40
a(S'K'
p41
Vapart,
p42
tp43
a(g38
Vscars
p44
tp45
a(S'L'
p46
Vland,
p47
tp48
a(g35
Vseek
p49
tp50
a(g3
Vplan
p51
tp52
a(g35
Vweak
p53
tp54
a(g27
Vhope,
p55
tp56
a(g3
Vchain
p57
tp58
a(g13
Vland
p59
tp60
a(g13
Vneed
p61
tp62
a(S'M'
p63
Vpay
p64
tp65
a(g13
Vgreed
p66
tp67
a(S'N'
p68
Vsoil
p69
tp70
a(g3
Vmachine
p71
tp72
a(g68
Vall
p73
tp74
a(g3
Vmean
p75
tp76
a(g19
Vdream
p77
tp78
a(g38
VPioneers
p79
tp80
a(g46
Vahead,
p81
tp82
a(g38
Vyears
p83
tp84
a(g19
Vdream
p85
tp86
a(S'O'
p87
Vkings,
p88
tp89
a(g27
Vtrue,
p90
tp91
a(g38
Vsings
p92
tp93
a(g13
Vturned
p94
tp95
a(g19
Vbecome
p96
tp97
a(g38
Vseas
p98
tp99
a(g19
Vhome
p100
tp101
a(g27
Vshore,
p102
tp103
a(S'P'
p104
Vlea,
p105
tp106
a(g19
Vcame
p107
tp108
a(g6
Vfree
p109
tp110
a(g6
Vfree
p111
tp112
a(g6
Vme
p113
tp114
a(g63
Vtoday
p115
tp116
a(g35
Vstrike
p117
tp118
a(g63
Vpay
p119
tp120
a(g13
Vdreamed
p121
tp122
a(S'Q'
p123
Vsung
p124
tp125
a(g13
Vheld
p126
tp127
a(S'R'
p128
Vhung,
p129
tp130
a(g63
Vpay
p131
tp132
a(g63
Vtoday
p133
tp134
a(g3
Vagain
p135
tp136
a(S'S'
p137
Vyet
p138
tp139
a(g6
Vfree
p140
tp141
a(S'T'
p142
VME
p143
tp144
a(g104
VAmerica,
p145
tp146
a(S'U'
p147
Vpain,
p148
tp149
a(g147
Vrain,
p150
tp151
a(g3
Vagain
p152
tp153
a(g38
Vchoose
p154
tp155
a(g3
Vstain
p156
tp157
a(g87
Vlives,
p158
tp159
a(g147
Vagain,
p160
tp161
a(S'V'
p162
Vamerica
p163
tp164
a(g87
Vyes,
p165
tp166
a(g147
Vplain,
p167
tp168
a(g27
Vme,
p169
tp170
a(S'W'
p171
Voath
p172
tp173
a(g6
Vbe
p174
tp175
a(g24
Vdeath,
p176
tp177
a(g87
Vlies,
p178
tp179
a(g19
Vredeem
p180
tp181
a(g38
Vrivers
p182
tp183
a(g3
Vplain
p184
tp185
a(S'X'
p186
Vstates
p187
tp188
a(g3
Vagain
p189
tp190
asS'lh_poems/Black_Workers.txt'
p191
(lp192
(g3
Vwork
p193
tp194
a(g6
Vthem
p195
tp196
a(g13
Vbees-
p197
tp198
a(g16
Vlast
p199
tp200
a(g19
Vforever
p201
tp202
asS'lh_poems/Militant.txt'
p203
(lp204
(g3
Vshame
p205
tp206
a(g6
Vnot
p207
tp208
a(g13
Vlong
p209
tp210
a(g16
Vthroat,
p211
tp212
a(g19
Vsoul
p213
tp214
a(g13
Vwrong
p215
tp216
a(g24
Vwork
p217
tp218
a(g27
Vpay,
p219
tp220
a(g30
Vdreams
p221
tp222
a(g35
Vface,
p223
tp224
a(g6
Vclenched
p225
tp226
a(g38
VToday-
p227
tp228
a(g41
Vface
p229
tp230
asS'lh_poems/Go_Slow.txt'
p231
(lp232
(g3
Vsay-
p233
tp234
a(g6
Vbite
p235
tp236
a(g6
Vfast
p237
tp238
a(g13
Vhear-
p239
tp240
a(g16
Vme
p241
tp242
a(g19
Vhere
p243
tp244
a(g19
Vhere
p245
tp246
a(g19
Vhere
p247
tp248
a(g24
VWait
p249
tp250
a(g6
Vgate
p251
tp252
a(g27
VGod,
p253
tp254
a(g30
Vwings
p255
tp256
a(g35
Vhead
p257
tp258
a(g35
Vdead
p259
tp260
a(g38
Vforgive
p261
tp262
a(g38
Vlive
p263
tp264
a(g41
Vslow,
p265
tp266
a(g41
Vslow,
p267
tp268
a(g41
Vslow,
p269
tp270
a(g41
VSlow,
p271
tp272
a(g41
VSlow,
p273
tp274
asS'gb_poems/TO_THE_DIASPORA.txt'
p275
(lp276
(g3
VAfrika
p277
tp278
a(g3
VAfrika
p279
tp280
a(g6
Vgoing
p281
tp282
a(g13
Vbecause
p283
tp284
a(g3
VAfrika
p285
tp286
a(g16
Vcontinent
p287
tp288
a(g16
Vreached
p289
tp290
a(g19
Vyou
p291
tp292
a(g24
Vsun
p293
tp294
a(g27
Vcome,
p295
tp296
a(g30
Vroad,
p297
tp298
a(g13
Vdiamonds
p299
tp300
a(g35
V--
p301
tp302
a(g38
Vroad
p303
tp304
a(g41
Vmouth
p305
tp306
a(g46
Vclose
p307
tp308
a(g30
Vroad,
p309
tp310
a(g63
Vbelief,
p311
tp312
a(g68
Vme
p313
tp314
a(g68
VSome
p315
tp316
a(g87
Vreach
p317
tp318
a(g27
Va-wobble,
p319
tp320
a(g104
Vcrescendo
p321
tp322
a(g24
Vdone
p323
tp324
asS'lh_poems/50-50.txt'
p325
(lp326
(g3
Vsaid,
p327
tp328
a(g3
Vbed,
p329
tp330
a(g6
Vhand
p331
tp332
a(g13
Vmatters
p333
tp334
a(g16
Vman
p335
tp336
a(g3
Vsaid,
p337
tp338
a(g13
Vis
p339
tp340
a(g6
Vhead
p341
tp342
a(g6
Vmind
p343
tp344
a(g19
Vyou
p345
tp346
a(g24
Vtime
p347
tp348
a(g19
Vdo
p349
tp350
a(g6
Vbed
p351
tp352
a(g19
Vtoo
p353
tp354
asS'gb_poems/my_dreams,_my_works,_must_wait_till_after_hell.txt'
p355
(lp356
(g3
Vbread
p357
tp358
a(g6
Vwill
p359
tp360
a(g3
Vlid
p361
tp362
a(g6
Vhell
p363
tp364
a(g13
Vincomplete
p365
tp366
a(g16
VWait,
p367
tp368
a(g19
Vin
p369
tp370
a(g13
Vhurt
p371
tp372
a(g24
Vresume
p373
tp374
a(g13
Vheart
p375
tp376
a(g27
Vhome,
p377
tp378
a(g30
Vinsensitive
p379
tp380
asS'gb_poems/the_independent_man.txt'
p381
(lp382
(g3
Vlife
p383
tp384
a(g6
Vthree
p385
tp386
a(g13
Vwine
p387
tp388
a(g3
Vwife
p389
tp390
a(g6
Vglee
p391
tp392
a(g16
Vfriend
p393
tp394
a(g19
Vcork
p395
tp396
a(g6
Vfree
p397
tp398
a(g24
Vwell
p399
tp400
a(g24
Vbell
p401
tp402
asS'gb_poems/The_Bean_Eaters.txt'
p403
(lp404
(g3
Vpair,
p405
tp406
a(g6
Vaffair
p407
tp408
a(g13
Vwood,
p409
tp410
a(g6
Vflatware
p411
tp412
a(g16
VGood
p413
tp414
a(g19
Vday,
p415
tp416
a(g24
Vclothes
p417
tp418
a(g27
Vaway
p419
tp420
a(g30
V...
p421
tp422
a(g35
Vtwinges,
p423
tp424
a(g38
Vroom
p425
tp426
a(g41
Vand
p427
tp428
a(g24
Vfringes
p429
tp430
asS'lh_poems/Open_Letter_to_the_South.txt'
p431
(lp432
(g3
VSouth
p433
tp434
a(g6
VMiners,
p435
tp436
a(g6
VFarmers,
p437
tp438
a(g6
VMechanics,
p439
tp440
a(g6
VHands,
p441
tp442
a(g6
Vgirls,
p443
tp444
a(g13
Vmen,
p445
tp446
a(g6
VServants,
p447
tp448
a(g6
Vworkers,
p449
tp450
a(g6
VSharecroppers,
p451
tp452
a(g16
VGREETINGS
p453
tp454
a(g19
Vworker,
p455
tp456
a(g24
VListen:
p457
tp458
a(g6
Vours,
p459
tp460
a(g27
Vtowers
p461
tp462
a(g30
VOrleans
p463
tp464
a(g35
Vpower
p465
tp466
a(g38
Vours:
p467
tp468
a(g41
Vsaid,
p469
tp470
a(g27
Vfingers
p471
tp472
a(g46
VI,
p473
tp474
a(g63
Vhand
p475
tp476
a(g27
Vrise
p477
tp478
a(g68
Vpast-
p479
tp480
a(g35
Vcolor
p481
tp482
a(g87
Venthroned
p483
tp484
a(g104
Vplow
p485
tp486
a(g123
Vnow-
p487
tp488
a(g128
Vrace,
p489
tp490
a(g137
Vblack,
p491
tp492
a(g142
Vface
p493
tp494
a(g13
Vlearn,
p495
tp496
a(g6
Vworkers,
p497
tp498
a(g128
Vmake,
p499
tp500
a(g147
Vform:
p501
tp502
a(g162
Vout
p503
tp504
a(g171
Vmistake
p505
tp506
a(g186
Vsay:
p507
tp508
a(g128
Vwhite,
p509
tp510
a(S'Y'
p511
Vsister-now-today
p512
tp513
a(g3
VNorth
p514
tp515
a(S'Z'
p516
Vpower-
p517
tp518
a(g35
Vtower
p519
tp520
a(S'['
p521
VFREE
p522
tp523
a(g6
Vworkers,
p524
tp525
a(S'\\'
p526
Vme
p527
tp528
a(g27
Vbrothers
p529
tp530
a(S']'
p531
Vknow
p532
tp533
a(g63
Vbrotherhood
p534
tp535
a(g531
Vgrow
p536
tp537
a(g531
Vknow
p538
tp539
a(S'^'
p540
Vstrong
p541
tp542
a(g3
Vstrength
p543
tp544
a(g526
Vbe
p545
tp546
a(g137
Vtime-clock,
p547
tp548
a(S'_'
p549
Vmisery,
p550
tp551
a(g41
Vland,
p552
tp553
a(g6
Vfactories,
p554
tp555
a(g6
Vtowers,
p556
tp557
a(g27
Vmines
p558
tp559
a(g6
Vdams,
p560
tp561
a(g63
Vworld
p562
tp563
a(g27
Vours
p564
tp565
a(g19
Vworker,
p566
tp567
a(g63
Vhand
p568
tp569
a(g549
VToday,
p570
tp571
a(S'`'
p572
VMan
p573
tp574
asS'lh_poems/Enemy.txt'
p575
(lp576
(g3
Vnice
p577
tp578
a(g6
Vcase,
p579
tp580
a(g13
Vyou
p581
tp582
a(g3
Vface
p583
tp584
a(g16
Vdown
p585
tp586
a(g19
V...
p587
tp588
a(g24
Vup
p589
tp590
a(g27
Vswell
p591
tp592
asS'gb_poems/THE_SONNET_-_BALLAD.txt'
p593
(lp594
(g3
Vhappiness
p595
tp596
a(g6
Vwar,
p597
tp598
a(g3
Vguess
p599
tp600
a(g13
Vfor
p601
tp602
a(g13
Vmore
p603
tp604
a(g16
Vknew
p605
tp606
a(g13
Vdoor
p607
tp608
a(g16
Vuntrue
p609
tp610
a(g19
Vcourt
p611
tp612
a(g24
Vstrange
p613
tp614
a(g19
Vsort
p615
tp616
a(g24
Vchange
p617
tp618
a(g27
VYes
p619
tp620
a(g3
Vhappiness
p621
tp622
asS'lh_poems/The_Ballad_Of_The_Landlord.txt'
p623
(lp624
(g3
Vlandlord,
p625
tp626
a(g6
Vleak
p627
tp628
a(g13
Vit
p629
tp630
a(g6
Vweek
p631
tp632
a(g3
Vlandlord,
p633
tp634
a(g16
Vdown
p635
tp636
a(g19
Vyourself
p637
tp638
a(g16
Vdown
p639
tp640
a(g24
Vyou
p641
tp642
a(g24
Vdue
p643
tp644
a(g24
Vyou
p645
tp646
a(g24
Vnew
p647
tp648
a(g27
Vorders
p649
tp650
a(g13
Vheat
p651
tp652
a(g30
Vand
p653
tp654
a(g13
Vstreet
p655
tp656
a(g35
Vmighty
p657
tp658
a(g24
Vthrough
p659
tp660
a(g30
Vword
p661
tp662
a(g24
Vyou
p663
tp664
a(g38
VPolice
p665
tp666
a(g16
Vman
p667
tp668
a(g13
Vgovernment
p669
tp670
a(g30
Vland
p671
tp672
a(g41
Vwhistle
p673
tp674
a(g41
Vbell
p675
tp676
a(g13
Varrest
p677
tp678
a(g46
VStation
p679
tp680
a(g41
Vcell
p681
tp682
a(g63
Vpress:
p683
tp684
a(g68
VLANDLORD
p685
tp686
a(g87
VBAIL
p687
tp688
a(g87
VJAIL
p689
tp690
asS'lh_poems/I_too.txt'
p691
(lp692
(g3
VAmerica
p693
tp694
a(g6
Vbrother
p695
tp696
a(g13
Vkitchen
p697
tp698
a(g16
Vcomes,
p699
tp700
a(g19
Vlaugh,
p701
tp702
a(g24
Vwell,
p703
tp704
a(g27
Vstrong
p705
tp706
a(g30
VTomorrow,
p707
tp708
a(g35
Vtable
p709
tp710
a(g38
Vcomes
p711
tp712
a(g41
Vdare
p713
tp714
a(g46
Vme,
p715
tp716
a(g63
Vkitchen,
p717
tp718
a(g13
Vthen
p719
tp720
a(g68
Vam
p721
tp722
a(g87
Vashamed
p723
tp724
asS'gb_poems/Kitchenete_Building.txt'
p725
(lp726
(g3
Vplan,
p727
tp728
a(g6
Vstrong
p729
tp730
a(g13
Vman
p731
tp732
a(g16
Vfumes
p733
tp734
a(g16
Vpotatoes
p735
tp736
a(g19
Vhall,
p737
tp738
a(g24
Vrooms,
p739
tp740
a(g3
Vin,
p741
tp742
a(g3
Vclean,
p743
tp744
a(g13
Vbegin
p745
tp746
a(g27
Vminute
p747
tp748
a(g30
Vnow,
p749
tp750
a(g27
Vit
p751
tp752
asS'gb_poems/We_Real_Cool.txt'
p753
(lp754
(g3
VPlayers
p755
tp756
a(g6
VShovel
p757
tp758
a(g13
VWe
p759
tp760
a(g13
VWe
p761
tp762
a(g13
VWe
p763
tp764
a(g13
VWe
p765
tp766
a(g13
VWe
p767
tp768
a(g13
VWe
p769
tp770
a(g13
VWe
p771
tp772
a(g16
Vsoon
p773
tp774
asS'gb_poems/The_Crazy_Woman.txt'
p775
(lp776
(g3
Vsong
p777
tp778
a(g6
Vgay
p779
tp780
a(g13
VNovember
p781
tp782
a(g6
Vgray
p783
tp784
a(g13
VNovember
p785
tp786
a(g16
Vme
p787
tp788
a(g19
Vdark
p789
tp790
a(g24
Vterribly
p791
tp792
a(g27
Vpeople
p793
tp794
a(g30
Vsay,
p795
tp796
a(g35
VWoman
p797
tp798
a(g6
VMay
p799
tp800
asS'gb_poems/A_Sunset_of_the_City.txt'
p801
(lp802
(g3
Vlove
p803
tp804
a(g6
Vdolls,
p805
tp806
a(g13
Vhouse
p807
tp808
a(g16
Vpolite
p809
tp810
a(g16
Vnight
p811
tp812
a(g19
Vout,
p813
tp814
a(g24
Vthing
p815
tp816
a(g27
Vsummer
p817
tp818
a(g24
Vsing
p819
tp820
a(g30
Vsummer-gone
p821
tp822
a(g35
Vdown,
p823
tp824
a(g38
Vbrown
p825
tp826
a(g41
Vcomes
p827
tp828
a(g46
Vheed
p829
tp830
a(g13
Vhouse
p831
tp832
a(g46
Vneed
p833
tp834
a(g13
Vhouse
p835
tp836
a(g41
Vhalls
p837
tp838
a(g41
Vaffairs
p839
tp840
a(g41
Vprayers
p841
tp842
a(g63
Vrelief
p843
tp844
a(g68
Vgrief,
p845
tp846
a(g87
Vshore
p847
tp848
a(g35
Vtin,
p849
tp850
a(g104
Vdry
p851
tp852
a(g104
Vdie
p853
tp854
a(g123
Vjoke
p855
tp856
asS'gb_poems/TO_BE_IN_LOVE.txt'
p857
(lp858
(g3
Vlove
p859
tp860
a(g6
Vhand
p861
tp862
a(g13
Vwell
p863
tp864
a(g16
Vthings
p865
tp866
a(g16
Veyes
p867
tp868
a(g6
Vred
p869
tp870
a(g19
Vblue
p871
tp872
a(g19
Vtoo
p873
tp874
a(g24
Vbut
p875
tp876
a(g27
Vtogether
p877
tp878
a(g27
Vweather
p879
tp880
a(g16
Vis
p881
tp882
a(g30
Vovermuch
p883
tp884
a(g35
Vbear
p885
tp886
a(g16
Veyes
p887
tp888
a(g38
Vsay
p889
tp890
a(g6
Vsaid
p891
tp892
a(g41
Vdoor-
p893
tp894
a(g46
Vthere_
p895
tp896
a(g27
Vwater
p897
tp898
a(g63
Vfree
p899
tp900
a(g68
Vfreedom
p901
tp902
a(g87
Vhalf
p903
tp904
a(g24
Vhurt
p905
tp906
a(g104
Vmouth
p907
tp908
a(g123
Von
p909
tp910
a(g35
Vdeclare
p911
tp912
a(g104
VDeath
p913
tp914
a(g128
Vapprize
p915
tp916
a(g137
Vmesmerize,
p917
tp918
a(g142
VGold,
p919
tp920
a(g147
Vash
p921
tp922
asS'lh_poems/History.txt'
p923
(lp924
(g3
Vmint
p925
tp926
a(g6
Vsorrow
p927
tp928
a(g13
Vbe
p929
tp930
a(g16
Vtomorrow
p931
tp932
asS'gb_poems/Sadie_and_Maud.txt'
p933
(lp934
(g3
Vcollege
p935
tp936
a(g6
Vhome
p937
tp938
a(g13
Vlife
p939
tp940
a(g6
Vcomb
p941
tp942
a(g16
Vin
p943
tp944
a(g19
Vstrand
p945
tp946
a(g24
Vchicks
p947
tp948
a(g19
Vland
p949
tp950
a(g27
Vbabies
p951
tp952
a(g6
Vname
p953
tp954
a(g30
VPapa
p955
tp956
a(g6
Vshame
p957
tp958
a(g35
Vso-long
p959
tp960
a(g6
Vhome
p961
tp962
a(g6
Vcomb
p963
tp964
a(g38
Vcollege,
p965
tp966
a(g24
Vmouse
p967
tp968
a(g16
Valone
p969
tp970
a(g24
Vhouse
p971
tp972
as.