(dp0
S'lh_poems/Let_America_Be_America_Again.txt'
p1
(lp2
(S'A'
p3
Vagain
p4
tp5
a(S'B'
p6
Vbe
p7
tp8
a(g3
Vplain
p9
tp10
a(g6
Vfree
p11
tp12
a(S'C'
p13
Vdreamed
p14
tp15
a(S'D'
p16
Vlove
p17
tp18
a(S'E'
p19
Vscheme
p20
tp21
a(g16
Vabove
p22
tp23
a(S'F'
p24
Vbreathe
p25
tp26
a(g6
Vfree
p27
tp28
a(S'G'
p29
Vdark
p30
tp31
a(S'H'
p32
Vstars
p33
tp34
a(g32
Vscars
p35
tp36
a(g29
Vseek
p37
tp38
a(g3
Vplan
p39
tp40
a(g29
Vweak
p41
tp42
a(g3
Vchain
p43
tp44
a(g13
Vland
p45
tp46
a(g13
Vneed
p47
tp48
a(S'I'
p49
Vpay
p50
tp51
a(g13
Vgreed
p52
tp53
a(S'J'
p54
Vsoil
p55
tp56
a(g3
Vmachine
p57
tp58
a(g54
Vall
p59
tp60
a(g3
Vmean
p61
tp62
a(g19
Vdream
p63
tp64
a(g32
VPioneers
p65
tp66
a(g32
Vyears
p67
tp68
a(g19
Vdream
p69
tp70
a(g32
Vsings
p71
tp72
a(g13
Vturned
p73
tp74
a(g19
Vbecome
p75
tp76
a(g32
Vseas
p77
tp78
a(g19
Vhome
p79
tp80
a(g19
Vcame
p81
tp82
a(g6
Vfree
p83
tp84
a(g6
Vfree
p85
tp86
a(g6
Vme
p87
tp88
a(g49
Vtoday
p89
tp90
a(g29
Vstrike
p91
tp92
a(g49
Vpay
p93
tp94
a(g13
Vdreamed
p95
tp96
a(S'K'
p97
Vsung
p98
tp99
a(g13
Vheld
p100
tp101
a(g49
Vpay
p102
tp103
a(g49
Vtoday
p104
tp105
a(g3
Vagain
p106
tp107
a(S'L'
p108
Vyet
p109
tp110
a(g6
Vfree
p111
tp112
a(g6
VME
p113
tp114
a(g3
Vagain
p115
tp116
a(g32
Vchoose
p117
tp118
a(g3
Vstain
p119
tp120
a(S'M'
p121
Vamerica
p122
tp123
a(S'N'
p124
Voath
p125
tp126
a(g6
Vbe
p127
tp128
a(g19
Vredeem
p129
tp130
a(g32
Vrivers
p131
tp132
a(g3
Vplain
p133
tp134
a(S'O'
p135
Vstates
p136
tp137
a(g3
Vagain
p138
tp139
asS'lh_poems/Black_Workers.txt'
p140
(lp141
(g3
Vwork
p142
tp143
a(g6
Vthem
p144
tp145
a(g13
Vlast
p146
tp147
a(g16
Vforever
p148
tp149
asS'lh_poems/Militant.txt'
p150
(lp151
(g3
Vshame
p152
tp153
a(g6
Vnot
p154
tp155
a(g13
Vlong
p156
tp157
a(g16
Vsoul
p158
tp159
a(g13
Vwrong
p160
tp161
a(g19
Vwork
p162
tp163
a(g24
Vdreams
p164
tp165
a(g6
Vclenched
p166
tp167
a(g29
Vface
p168
tp169
asS'lh_poems/Go_Slow.txt'
p170
(lp171
(g3
Vsay-
p172
tp173
asS'gb_poems/TO_THE_DIASPORA.txt'
p174
(lp175
(g3
VAfrika
p176
tp177
asS'lh_poems/50-50.txt'
p178
(lp179
(g3
Vsaid,
p180
tp181
asS'gb_poems/my_dreams,_my_works,_must_wait_till_after_hell.txt'
p182
(lp183
(g3
Vbread
p184
tp185
a(g6
Vwill
p186
tp187
a(g3
Vlid
p188
tp189
a(g6
Vhell
p190
tp191
a(g13
Vincomplete
p192
tp193
a(g16
Vin
p194
tp195
a(g13
Vhurt
p196
tp197
a(g19
Vresume
p198
tp199
a(g13
Vheart
p200
tp201
a(g24
Vinsensitive
p202
tp203
asS'gb_poems/the_independent_man.txt'
p204
(lp205
(g3
Vlife
p206
tp207
a(g6
Vthree
p208
tp209
a(g13
Vwine
p210
tp211
a(g3
Vwife
p212
tp213
a(g6
Vglee
p214
tp215
a(g16
Vfriend
p216
tp217
a(g19
Vcork
p218
tp219
a(g6
Vfree
p220
tp221
a(g24
Vwell
p222
tp223
a(g24
Vbell
p224
tp225
asS'gb_poems/The_Bean_Eaters.txt'
p226
(lp227
(g3
Vpair,
p228
tp229
asS'lh_poems/Open_Letter_to_the_South.txt'
p230
(lp231
(g3
VSouth
p232
tp233
a(g6
VGREETINGS
p234
tp235
a(g6
Vtowers
p236
tp237
a(g6
VOrleans
p238
tp239
a(g13
Vpower
p240
tp241
a(g6
Vfingers
p242
tp243
a(g16
Vhand
p244
tp245
a(g6
Vrise
p246
tp247
a(g13
Vcolor
p248
tp249
a(g19
Vplow
p250
tp251
a(g24
Vface
p252
tp253
a(g29
Vout
p254
tp255
a(g32
Vmistake
p256
tp257
a(g3
VNorth
p258
tp259
a(g13
Vtower
p260
tp261
a(g49
VFREE
p262
tp263
a(g49
Vme
p264
tp265
a(g6
Vbrothers
p266
tp267
a(g54
Vknow
p268
tp269
a(g16
Vbrotherhood
p270
tp271
a(g54
Vgrow
p272
tp273
a(g54
Vknow
p274
tp275
a(g97
Vstrong
p276
tp277
a(g3
Vstrength
p278
tp279
a(g49
Vbe
p280
tp281
a(g6
Vmines
p282
tp283
a(g16
Vworld
p284
tp285
a(g6
Vours
p286
tp287
a(g16
Vhand
p288
tp289
a(g108
VMan
p290
tp291
asS'lh_poems/Enemy.txt'
p292
(lp293
(g3
Vnice
p294
tp295
a(g6
Vyou
p296
tp297
a(g3
Vface
p298
tp299
a(g13
Vdown
p300
tp301
a(g16
Vup
p302
tp303
a(g19
Vswell
p304
tp305
asS'gb_poems/THE_SONNET_-_BALLAD.txt'
p306
(lp307
(g3
Vhappiness
p308
tp309
a(g3
Vguess
p310
tp311
a(g6
Vfor
p312
tp313
a(g6
Vmore
p314
tp315
a(g13
Vknew
p316
tp317
a(g6
Vdoor
p318
tp319
a(g13
Vuntrue
p320
tp321
a(g16
Vcourt
p322
tp323
a(g19
Vstrange
p324
tp325
a(g16
Vsort
p326
tp327
a(g19
Vchange
p328
tp329
a(g3
VYes
p330
tp331
a(g3
Vhappiness
p332
tp333
asS'lh_poems/The_Ballad_Of_The_Landlord.txt'
p334
(lp335
(g3
Vlandlord,
p336
tp337
asS'lh_poems/I_too.txt'
p338
(lp339
(g3
VAmerica
p340
tp341
a(g6
Vbrother
p342
tp343
a(g13
Vkitchen
p344
tp345
a(g16
Vstrong
p346
tp347
a(g19
Vtable
p348
tp349
a(g24
Vcomes
p350
tp351
a(g29
Vdare
p352
tp353
a(g13
Vthen
p354
tp355
a(g32
Vam
p356
tp357
a(g49
Vashamed
p358
tp359
asS'gb_poems/Kitchenete_Building.txt'
p360
(lp361
(g3
Vplan,
p362
tp363
asS'gb_poems/We_Real_Cool.txt'
p364
(lp365
(g3
VPlayers
p366
tp367
a(g6
VShovel
p368
tp369
a(g13
VWe
p370
tp371
a(g13
VWe
p372
tp373
a(g13
VWe
p374
tp375
a(g13
VWe
p376
tp377
a(g13
VWe
p378
tp379
a(g13
VWe
p380
tp381
a(g13
VWe
p382
tp383
a(g16
Vsoon
p384
tp385
asS'gb_poems/The_Crazy_Woman.txt'
p386
(lp387
(g3
Vsong
p388
tp389
a(g6
Vgay
p390
tp391
a(g13
VNovember
p392
tp393
a(g6
Vgray
p394
tp395
a(g13
VNovember
p396
tp397
a(g16
Vme
p398
tp399
a(g19
Vdark
p400
tp401
a(g24
Vterribly
p402
tp403
a(g29
Vpeople
p404
tp405
a(g32
VWoman
p406
tp407
a(g6
VMay
p408
tp409
asS'gb_poems/A_Sunset_of_the_City.txt'
p410
(lp411
(g3
Vlove
p412
tp413
a(g6
Vhouse
p414
tp415
a(g13
Vpolite
p416
tp417
a(g13
Vnight
p418
tp419
a(g16
Vthing
p420
tp421
a(g19
Vsummer
p422
tp423
a(g16
Vsing
p424
tp425
a(g24
Vbrown
p426
tp427
a(g29
Vcomes
p428
tp429
a(g32
Vheed
p430
tp431
a(g6
Vhouse
p432
tp433
a(g32
Vneed
p434
tp435
a(g6
Vhouse
p436
tp437
a(g29
Vhalls
p438
tp439
a(g29
Vaffairs
p440
tp441
a(g29
Vprayers
p442
tp443
a(g49
Vrelief
p444
tp445
a(g54
Vshore
p446
tp447
a(g97
Vdry
p448
tp449
a(g97
Vdie
p450
tp451
a(g108
Vjoke
p452
tp453
asS'gb_poems/TO_BE_IN_LOVE.txt'
p454
(lp455
(g3
Vlove
p456
tp457
a(g6
Vhand
p458
tp459
a(g13
Vwell
p460
tp461
a(g16
Vthings
p462
tp463
a(g16
Veyes
p464
tp465
a(g6
Vred
p466
tp467
a(g19
Vblue
p468
tp469
a(g19
Vtoo
p470
tp471
a(g24
Vbut
p472
tp473
a(g29
Vtogether
p474
tp475
a(g29
Vweather
p476
tp477
a(g16
Vis
p478
tp479
a(g32
Vbear
p480
tp481
a(g16
Veyes
p482
tp483
a(g49
Vsay
p484
tp485
a(g6
Vsaid
p486
tp487
a(g29
Vwater
p488
tp489
a(g54
Vfree
p490
tp491
a(g97
Vfreedom
p492
tp493
a(g108
Vhalf
p494
tp495
a(g24
Vhurt
p496
tp497
a(g121
Vmouth
p498
tp499
a(g124
Von
p500
tp501
a(g32
Vdeclare
p502
tp503
a(g121
VDeath
p504
tp505
a(g135
Vash
p506
tp507
asS'lh_poems/History.txt'
p508
(lp509
(g3
Vmint
p510
tp511
a(g6
Vsorrow
p512
tp513
a(g13
Vbe
p514
tp515
a(g16
Vtomorrow
p516
tp517
asS'gb_poems/Sadie_and_Maud.txt'
p518
(lp519
(g3
Vcollege
p520
tp521
a(g6
Vhome
p522
tp523
a(g13
Vlife
p524
tp525
a(g6
Vcomb
p526
tp527
a(g16
Vin
p528
tp529
a(g19
Vstrand
p530
tp531
a(g24
Vchicks
p532
tp533
a(g19
Vland
p534
tp535
a(g29
Vbabies
p536
tp537
a(g6
Vname
p538
tp539
a(g32
VPapa
p540
tp541
a(g6
Vshame
p542
tp543
a(g6
Vhome
p544
tp545
a(g6
Vcomb
p546
tp547
a(g24
Vmouse
p548
tp549
a(g16
Valone
p550
tp551
a(g24
Vhouse
p552
tp553
as.