(dp0
S'lh_poems/Let_America_Be_America_Again.txt'
p1
(lp2
ccopy_reg
_reconstructor
p3
(cnltk.tree
Tree
p4
c__builtin__
list
p5
(lp6
g3
(g4
g5
(lp7
g3
(g4
g5
(lp8
Vlet
p9
atp10
Rp11
(dp12
S'_label'
p13
VVBP
p14
sbag3
(g4
g5
(lp15
g3
(g4
g5
(lp16
VAmerica
p17
atp18
Rp19
(dp20
g13
VNNP
p21
sbatp22
Rp23
(dp24
g13
VNP
p25
sbag3
(g4
g5
(lp26
g3
(g4
g5
(lp27
Vbe
p28
atp29
Rp30
(dp31
g13
VVB
p32
sbag3
(g4
g5
(lp33
g3
(g4
g5
(lp34
VAmerica
p35
atp36
Rp37
(dp38
g13
VNNP
p39
sbatp40
Rp41
(dp42
g13
VNP
p43
sbag3
(g4
g5
(lp44
g3
(g4
g5
(lp45
Vagain
p46
atp47
Rp48
(dp49
g13
VRB
p50
sbatp51
Rp52
(dp53
g13
VADVP
p54
sbatp55
Rp56
(dp57
g13
VVP
p58
sbatp59
Rp60
(dp61
g13
VSQ
p62
sbag3
(g4
g5
(lp63
V.
p64
atp65
Rp66
(dp67
g13
V.
p68
sbatp69
Rp70
(dp71
g13
VSBARQ
p72
sbag3
(g4
g5
(lp73
g3
(g4
g5
(lp74
Vlet
p75
atp76
Rp77
(dp78
g13
VVBD
p79
sbag3
(g4
g5
(lp80
g3
(g4
g5
(lp81
Vit
p82
atp83
Rp84
(dp85
g13
VPRP
p86
sbatp87
Rp88
(dp89
g13
VNP
p90
sbag3
(g4
g5
(lp91
g3
(g4
g5
(lp92
Vbe
p93
atp94
Rp95
(dp96
g13
g32
sbag3
(g4
g5
(lp97
g3
(g4
g5
(lp98
g3
(g4
g5
(lp99
Vthe
p100
atp101
Rp102
(dp103
g13
VDT
p104
sbag3
(g4
g5
(lp105
Vdream
p106
atp107
Rp108
(dp109
g13
VNN
p110
sbatp111
Rp112
(dp113
g13
VNP
p114
sbag3
(g4
g5
(lp115
g3
(g4
g5
(lp116
Vit
p117
atp118
Rp119
(dp120
g13
VPRP
p121
sbatp122
Rp123
(dp124
g13
VNP
p125
sbag3
(g4
g5
(lp126
g3
(g4
g5
(lp127
Vused
p128
atp129
Rp130
(dp131
g13
VVBN
p132
sbag3
(g4
g5
(lp133
g3
(g4
g5
(lp134
Vto
p135
atp136
Rp137
(dp138
g13
VTO
p139
sbag3
(g4
g5
(lp140
g3
(g4
g5
(lp141
Vbe
p142
atp143
Rp144
(dp145
g13
VVB
p146
sbatp147
Rp148
(dp149
g13
VVP
p150
sbatp151
Rp152
(dp153
g13
VS+VP
p154
sbatp155
Rp156
(dp157
g13
g58
sbag3
(g4
g5
(lp158
g64
atp159
Rp160
(dp161
g13
g68
sbatp162
Rp163
(dp164
g13
VS
p165
sbatp166
Rp167
(dp168
g13
g58
sbatp169
Rp170
(dp171
g13
VSBAR+SINV
p172
sbag3
(g4
g5
(lp173
g3
(g4
g5
(lp174
Vlet
p175
atp176
Rp177
(dp178
g13
g79
sbag3
(g4
g5
(lp179
g3
(g4
g5
(lp180
Vit
p181
atp182
Rp183
(dp184
g13
VPRP
p185
sbatp186
Rp187
(dp188
g13
VNP
p189
sbag3
(g4
g5
(lp190
g3
(g4
g5
(lp191
Vbe
p192
atp193
Rp194
(dp195
g13
g32
sbag3
(g4
g5
(lp196
g3
(g4
g5
(lp197
g3
(g4
g5
(lp198
Vthe
p199
atp200
Rp201
(dp202
g13
g104
sbag3
(g4
g5
(lp203
Vpioneer
p204
atp205
Rp206
(dp207
g13
g110
sbatp208
Rp209
(dp210
g13
g114
sbag3
(g4
g5
(lp211
g3
(g4
g5
(lp212
Von
p213
atp214
Rp215
(dp216
g13
VIN
p217
sbag3
(g4
g5
(lp218
g3
(g4
g5
(lp219
Vthe
p220
atp221
Rp222
(dp223
g13
g104
sbag3
(g4
g5
(lp224
Vplain
p225
atp226
Rp227
(dp228
g13
g110
sbatp229
Rp230
(dp231
g13
g114
sbatp232
Rp233
(dp234
g13
VPP
p235
sbatp236
Rp237
(dp238
g13
g114
sbatp239
Rp240
(dp241
g13
g58
sbatp242
Rp243
(dp244
g13
g172
sbag3
(g4
g5
(lp245
g3
(g4
g5
(lp246
Vseeking
p247
atp248
Rp249
(dp250
g13
VVBG
p251
sbag3
(g4
g5
(lp252
g3
(g4
g5
(lp253
g3
(g4
g5
(lp254
Va
p255
atp256
Rp257
(dp258
g13
g104
sbag3
(g4
g5
(lp259
Vhome
p260
atp261
Rp262
(dp263
g13
g110
sbatp264
Rp265
(dp266
g13
g114
sbag3
(g4
g5
(lp267
g3
(g4
g5
(lp268
g3
(g4
g5
(lp269
Vwhere
p270
atp271
Rp272
(dp273
g13
VWRB
p274
sbatp275
Rp276
(dp277
g13
VWHADVP
p278
sbag3
(g4
g5
(lp279
g3
(g4
g5
(lp280
g3
(g4
g5
(lp281
Vhe
p282
atp283
Rp284
(dp285
g13
VPRP
p286
sbatp287
Rp288
(dp289
g13
VNP
p290
sbag3
(g4
g5
(lp291
g3
(g4
g5
(lp292
Vhimself
p293
atp294
Rp295
(dp296
g13
VPRP
p297
sbatp298
Rp299
(dp300
g13
VNP
p301
sbag3
(g4
g5
(lp302
g3
(g4
g5
(lp303
Vis
p304
atp305
Rp306
(dp307
g13
VVBZ
p308
sbag3
(g4
g5
(lp309
g3
(g4
g5
(lp310
Vfree
p311
atp312
Rp313
(dp314
g13
VJJ
p315
sbatp316
Rp317
(dp318
g13
VADJP
p319
sbatp320
Rp321
(dp322
g13
g58
sbag3
(g4
g5
(lp323
g64
atp324
Rp325
(dp326
g13
g68
sbatp327
Rp328
(dp329
g13
g165
sbatp330
Rp331
(dp332
g13
VSBAR
p333
sbatp334
Rp335
(dp336
g13
g114
sbatp337
Rp338
(dp339
g13
g154
sbaS' '
p340
ag340
ag340
ag3
(g4
g5
(lp341
g3
(g4
g5
(lp342
Vlet
p343
atp344
Rp345
(dp346
g13
g14
sbag3
(g4
g5
(lp347
g3
(g4
g5
(lp348
VAmerica
p349
atp350
Rp351
(dp352
g13
VNNP
p353
sbatp354
Rp355
(dp356
g13
VNP
p357
sbag3
(g4
g5
(lp358
g3
(g4
g5
(lp359
Vbe
p360
atp361
Rp362
(dp363
g13
g32
sbag3
(g4
g5
(lp364
g3
(g4
g5
(lp365
g3
(g4
g5
(lp366
g3
(g4
g5
(lp367
Vthe
p368
atp369
Rp370
(dp371
g13
g104
sbag3
(g4
g5
(lp372
Vdream
p373
atp374
Rp375
(dp376
g13
g110
sbatp377
Rp378
(dp379
g13
g114
sbag3
(g4
g5
(lp380
Vthe
p381
atp382
Rp383
(dp384
g13
g104
sbag3
(g4
g5
(lp385
Vdreamers
p386
atp387
Rp388
(dp389
g13
g110
sbatp390
Rp391
(dp392
g13
g114
sbag3
(g4
g5
(lp393
g3
(g4
g5
(lp394
Vdreamed
p395
atp396
Rp397
(dp398
g13
VVBN
p399
sbatp400
Rp401
(dp402
g13
VVP
p403
sbatp404
Rp405
(dp406
g13
g114
sbatp407
Rp408
(dp409
g13
g58
sbatp410
Rp411
(dp412
g13
g62
sbag3
(g4
g5
(lp413
g3
(g4
g5
(lp414
Vlet
p415
atp416
Rp417
(dp418
g13
g79
sbag3
(g4
g5
(lp419
g3
(g4
g5
(lp420
Vit
p421
atp422
Rp423
(dp424
g13
VPRP
p425
sbatp426
Rp427
(dp428
g13
VNP
p429
sbag3
(g4
g5
(lp430
g3
(g4
g5
(lp431
Vbe
p432
atp433
Rp434
(dp435
g13
g32
sbag3
(g4
g5
(lp436
g3
(g4
g5
(lp437
Vthat
p438
atp439
Rp440
(dp441
g13
g217
sbag3
(g4
g5
(lp442
g3
(g4
g5
(lp443
Vgreat
p444
atp445
Rp446
(dp447
g13
VJJ
p448
sbag3
(g4
g5
(lp449
Vstrong
p450
atp451
Rp452
(dp453
g13
g448
sbag3
(g4
g5
(lp454
g3
(g4
g5
(lp455
Vland
p456
atp457
Rp458
(dp459
g13
VNN
p460
sbatp461
Rp462
(dp463
g13
VNP
p464
sbag3
(g4
g5
(lp465
g3
(g4
g5
(lp466
Vof
p467
atp468
Rp469
(dp470
g13
g217
sbag3
(g4
g5
(lp471
g3
(g4
g5
(lp472
Vlove
p473
atp474
Rp475
(dp476
g13
VNN
p477
sbatp478
Rp479
(dp480
g13
VNP
p481
sbatp482
Rp483
(dp484
g13
g235
sbatp485
Rp486
(dp487
g13
g114
sbatp488
Rp489
(dp490
g13
g235
sbatp491
Rp492
(dp493
g13
g58
sbatp494
Rp495
(dp496
g13
g172
sbag3
(g4
g5
(lp497
g3
(g4
g5
(lp498
g3
(g4
g5
(lp499
Vwhere
p500
atp501
Rp502
(dp503
g13
VWRB
p504
sbatp505
Rp506
(dp507
g13
VWHADVP
p508
sbag3
(g4
g5
(lp509
g3
(g4
g5
(lp510
g3
(g4
g5
(lp511
Vnever
p512
atp513
Rp514
(dp515
g13
VRB
p516
sbatp517
Rp518
(dp519
g13
VADVP
p520
sbag3
(g4
g5
(lp521
g3
(g4
g5
(lp522
Vkings
p523
atp524
Rp525
(dp526
g13
g32
sbag3
(g4
g5
(lp527
Vconnive
p528
atp529
Rp530
(dp531
g13
g32
sbag3
(g4
g5
(lp532
g3
(g4
g5
(lp533
Vnor
p534
atp535
Rp536
(dp537
g13
VCC
p538
sbag3
(g4
g5
(lp539
Vtyrants
p540
atp541
Rp542
(dp543
g13
g448
sbag3
(g4
g5
(lp544
Vscheme
p545
atp546
Rp547
(dp548
g13
g110
sbatp549
Rp550
(dp551
g13
g114
sbatp552
Rp553
(dp554
g13
g58
sbatp555
Rp556
(dp557
g13
g165
sbatp558
Rp559
(dp560
g13
g333
sbag3
(g4
g5
(lp561
g3
(g4
g5
(lp562
Vthat
p563
atp564
Rp565
(dp566
g13
g217
sbag3
(g4
g5
(lp567
g3
(g4
g5
(lp568
g3
(g4
g5
(lp569
Vany
p570
atp571
Rp572
(dp573
g13
g104
sbag3
(g4
g5
(lp574
Vman
p575
atp576
Rp577
(dp578
g13
g110
sbatp579
Rp580
(dp581
g13
g114
sbag3
(g4
g5
(lp582
g3
(g4
g5
(lp583
Vbe
p584
atp585
Rp586
(dp587
g13
g32
sbag3
(g4
g5
(lp588
Vcrushed
p589
atp590
Rp591
(dp592
g13
g132
sbag3
(g4
g5
(lp593
g3
(g4
g5
(lp594
Vby
p595
atp596
Rp597
(dp598
g13
g217
sbag3
(g4
g5
(lp599
g3
(g4
g5
(lp600
Vone
p601
atp602
Rp603
(dp604
g13
VCD
p605
sbag3
(g4
g5
(lp606
Vabove
p607
atp608
Rp609
(dp610
g13
VRB
p611
sbatp612
Rp613
(dp614
g13
g114
sbatp615
Rp616
(dp617
g13
g235
sbatp618
Rp619
(dp620
g13
g58
sbag3
(g4
g5
(lp621
g64
atp622
Rp623
(dp624
g13
g68
sbatp625
Rp626
(dp627
g13
g165
sbatp628
Rp629
(dp630
g13
VPRN+SBAR
p631
sbag340
ag340
ag340
ag340
ag340
ag340
ag3
(g4
g5
(lp632
g3
(g4
g5
(lp633
g3
(g4
g5
(lp634
Vequality
p635
atp636
Rp637
(dp638
g13
g448
sbag3
(g4
g5
(lp639
g3
(g4
g5
(lp640
Vis
p641
atp642
Rp643
(dp644
g13
g308
sbag3
(g4
g5
(lp645
g3
(g4
g5
(lp646
Vin
p647
atp648
Rp649
(dp650
g13
g217
sbag3
(g4
g5
(lp651
g3
(g4
g5
(lp652
g3
(g4
g5
(lp653
Vthe
p654
atp655
Rp656
(dp657
g13
g104
sbag3
(g4
g5
(lp658
Vair
p659
atp660
Rp661
(dp662
g13
g110
sbatp663
Rp664
(dp665
g13
g114
sbag3
(g4
g5
(lp666
g3
(g4
g5
(lp667
g3
(g4
g5
(lp668
Vwe
p669
atp670
Rp671
(dp672
g13
VPRP
p673
sbatp674
Rp675
(dp676
g13
VNP
p677
sbag3
(g4
g5
(lp678
g3
(g4
g5
(lp679
Vbreathe
p680
atp681
Rp682
(dp683
g13
VVBP
p684
sbatp685
Rp686
(dp687
g13
VVP
p688
sbatp689
Rp690
(dp691
g13
VSBAR+S
p692
sbatp693
Rp694
(dp695
g13
g114
sbatp696
Rp697
(dp698
g13
g235
sbatp699
Rp700
(dp701
g13
g154
sbatp702
Rp703
(dp704
g13
VADJP
p705
sbag3
(g4
g5
(lp706
g64
atp707
Rp708
(dp709
g13
g68
sbatp710
Rp711
(dp712
g13
VSQ+FRAG
p713
sbag340
ag340
ag3
(g4
g5
(lp714
g3
(g4
g5
(lp715
g3
(g4
g5
(lp716
Vnor
p717
atp718
Rp719
(dp720
g13
g538
sbag3
(g4
g5
(lp721
g3
(g4
g5
(lp722
Vfreedom
p723
atp724
Rp725
(dp726
g13
g32
sbag3
(g4
g5
(lp727
g3
(g4
g5
(lp728
Vin
p729
atp730
Rp731
(dp732
g13
g217
sbag3
(g4
g5
(lp733
g3
(g4
g5
(lp734
g3
(g4
g5
(lp735
Vthis
p736
atp737
Rp738
(dp739
g13
g104
sbag3
(g4
g5
(lp740
Vhomeland
p741
atp742
Rp743
(dp744
g13
g110
sbatp745
Rp746
(dp747
g13
g114
sbag3
(g4
g5
(lp748
g3
(g4
g5
(lp749
Vof
p750
atp751
Rp752
(dp753
g13
g217
sbag3
(g4
g5
(lp754
g3
(g4
g5
(lp755
Vthe
p756
atp757
Rp758
(dp759
g13
g104
sbag3
(g4
g5
(lp760
Vfree
p761
atp762
Rp763
(dp764
g13
g448
sbatp765
Rp766
(dp767
g13
g114
sbatp768
Rp769
(dp770
g13
g235
sbatp771
Rp772
(dp773
g13
g114
sbatp774
Rp775
(dp776
g13
g235
sbatp777
Rp778
(dp779
g13
g58
sbag3
(g4
g5
(lp780
g64
atp781
Rp782
(dp783
g13
g68
sbatp784
Rp785
(dp786
g13
g165
sbag3
(g4
g5
(lp787
V)
p788
atp789
Rp790
(dp791
g13
V-RRB-
p792
sbatp793
Rp794
(dp795
g13
VPRN
p796
sbag340
ag3
(g4
g5
(lp797
g3
(g4
g5
(lp798
g3
(g4
g5
(lp799
Vsay
p800
atp801
Rp802
(dp803
g13
VVBP
p804
sbatp805
Rp806
(dp807
g13
VVP
p808
sbag3
(g4
g5
(lp809
g3
(g4
g5
(lp810
V,
p811
atp812
Rp813
(dp814
g13
V,
p815
sbag3
(g4
g5
(lp816
g3
(g4
g5
(lp817
g3
(g4
g5
(lp818
Vwho
p819
atp820
Rp821
(dp822
g13
VWP
p823
sbatp824
Rp825
(dp826
g13
VWHNP
p827
sbag3
(g4
g5
(lp828
g3
(g4
g5
(lp829
g3
(g4
g5
(lp830
Vare
p831
atp832
Rp833
(dp834
g13
g14
sbag3
(g4
g5
(lp835
g3
(g4
g5
(lp836
g3
(g4
g5
(lp837
Vyou
p838
atp839
Rp840
(dp841
g13
VPRP
p842
sbatp843
Rp844
(dp845
g13
VNP
p846
sbag3
(g4
g5
(lp847
g3
(g4
g5
(lp848
g3
(g4
g5
(lp849
Vthat
p850
atp851
Rp852
(dp853
g13
g217
sbag3
(g4
g5
(lp854
g3
(g4
g5
(lp855
Vmumbles
p856
atp857
Rp858
(dp859
g13
VNN
p860
sbatp861
Rp862
(dp863
g13
VNP
p864
sbatp865
Rp866
(dp867
g13
g235
sbag3
(g4
g5
(lp868
g3
(g4
g5
(lp869
Vin
p870
atp871
Rp872
(dp873
g13
g217
sbag3
(g4
g5
(lp874
g3
(g4
g5
(lp875
Vthe
p876
atp877
Rp878
(dp879
g13
g104
sbag3
(g4
g5
(lp880
Vdark
p881
atp882
Rp883
(dp884
g13
g110
sbatp885
Rp886
(dp887
g13
g114
sbatp888
Rp889
(dp890
g13
g235
sbatp891
Rp892
(dp893
g13
g58
sbatp894
Rp895
(dp896
g13
g692
sbatp897
Rp898
(dp899
g13
g58
sbag3
(g4
g5
(lp900
V?
p901
atp902
Rp903
(dp904
g13
g68
sbatp905
Rp906
(dp907
g13
g165
sbatp908
Rp909
(dp910
g13
g333
sbatp911
Rp912
(dp913
g13
g114
sbatp914
Rp915
(dp916
g13
VPRN+SINV
p917
sbag3
(g4
g5
(lp918
g3
(g4
g5
(lp919
Vand
p920
atp921
Rp922
(dp923
g13
g538
sbag3
(g4
g5
(lp924
g3
(g4
g5
(lp925
Vwho
p926
atp927
Rp928
(dp929
g13
VWP
p930
sbatp931
Rp932
(dp933
g13
VWHNP
p934
sbag3
(g4
g5
(lp935
g3
(g4
g5
(lp936
Vare
p937
atp938
Rp939
(dp940
g13
g14
sbag3
(g4
g5
(lp941
g3
(g4
g5
(lp942
Vyou
p943
atp944
Rp945
(dp946
g13
VPRP
p947
sbatp948
Rp949
(dp950
g13
VNP
p951
sbag3
(g4
g5
(lp952
g3
(g4
g5
(lp953
g3
(g4
g5
(lp954
Vthat
p955
atp956
Rp957
(dp958
g13
g217
sbag3
(g4
g5
(lp959
g3
(g4
g5
(lp960
Vdraws
p961
atp962
Rp963
(dp964
g13
g448
sbag3
(g4
g5
(lp965
Vyour
p966
atp967
Rp968
(dp969
g13
VPRP$
p970
sbag3
(g4
g5
(lp971
Vveil
p972
atp973
Rp974
(dp975
g13
g110
sbatp976
Rp977
(dp978
g13
g114
sbatp979
Rp980
(dp981
g13
g235
sbag3
(g4
g5
(lp982
g3
(g4
g5
(lp983
Vacross
p984
atp985
Rp986
(dp987
g13
g217
sbag3
(g4
g5
(lp988
g3
(g4
g5
(lp989
Vthe
p990
atp991
Rp992
(dp993
g13
g104
sbag3
(g4
g5
(lp994
Vstars
p995
atp996
Rp997
(dp998
g13
VNNS
p999
sbatp1000
Rp1001
(dp1002
g13
g114
sbatp1003
Rp1004
(dp1005
g13
g235
sbatp1006
Rp1007
(dp1008
g13
g58
sbatp1009
Rp1010
(dp1011
g13
g62
sbag3
(g4
g5
(lp1012
g901
atp1013
Rp1014
(dp1015
g13
g68
sbatp1016
Rp1017
(dp1018
g13
g72
sbag340
ag340
ag3
(g4
g5
(lp1019
g3
(g4
g5
(lp1020
g3
(g4
g5
(lp1021
g3
(g4
g5
(lp1022
VI
p1023
atp1024
Rp1025
(dp1026
g13
VPRP
p1027
sbatp1028
Rp1029
(dp1030
g13
VNP
p1031
sbag3
(g4
g5
(lp1032
g3
(g4
g5
(lp1033
Vam
p1034
atp1035
Rp1036
(dp1037
g13
g32
sbag3
(g4
g5
(lp1038
g3
(g4
g5
(lp1039
Vthe
p1040
atp1041
Rp1042
(dp1043
g13
g104
sbag3
(g4
g5
(lp1044
VNegro
p1045
atp1046
Rp1047
(dp1048
g13
VNNP
p1049
sbatp1050
Rp1051
(dp1052
g13
g114
sbatp1053
Rp1054
(dp1055
g13
g58
sbatp1056
Rp1057
(dp1058
g13
g165
sbag3
(g4
g5
(lp1059
g3
(g4
g5
(lp1060
g3
(g4
g5
(lp1061
Vbearing
p1062
atp1063
Rp1064
(dp1065
g13
g251
sbag3
(g4
g5
(lp1066
g3
(g4
g5
(lp1067
Vslaverys
p1068
atp1069
Rp1070
(dp1071
g13
g448
sbag3
(g4
g5
(lp1072
Vscars
p1073
atp1074
Rp1075
(dp1076
g13
g110
sbatp1077
Rp1078
(dp1079
g13
g114
sbatp1080
Rp1081
(dp1082
g13
g58
sbag3
(g4
g5
(lp1083
g64
atp1084
Rp1085
(dp1086
g13
g68
sbatp1087
Rp1088
(dp1089
g13
g165
sbatp1090
Rp1091
(dp1092
g13
VNP+SBAR+S
p1093
sbag340
ag3
(g4
g5
(lp1094
g3
(g4
g5
(lp1095
g3
(g4
g5
(lp1096
g3
(g4
g5
(lp1097
g1023
atp1098
Rp1099
(dp1100
g13
VPRP
p1101
sbatp1102
Rp1103
(dp1104
g13
VNP
p1105
sbag3
(g4
g5
(lp1106
g3
(g4
g5
(lp1107
Vam
p1108
atp1109
Rp1110
(dp1111
g13
g448
sbag3
(g4
g5
(lp1112
Vthe
p1113
atp1114
Rp1115
(dp1116
g13
g104
sbag3
(g4
g5
(lp1117
Vimmigrant
p1118
atp1119
Rp1120
(dp1121
g13
g110
sbatp1122
Rp1123
(dp1124
g13
g114
sbag3
(g4
g5
(lp1125
g3
(g4
g5
(lp1126
Vclutching
p1127
atp1128
Rp1129
(dp1130
g13
g251
sbag3
(g4
g5
(lp1131
g3
(g4
g5
(lp1132
Vthe
p1133
atp1134
Rp1135
(dp1136
g13
g104
sbag3
(g4
g5
(lp1137
Vhope
p1138
atp1139
Rp1140
(dp1141
g13
g110
sbatp1142
Rp1143
(dp1144
g13
g114
sbatp1145
Rp1146
(dp1147
g13
g58
sbatp1148
Rp1149
(dp1150
g13
g165
sbag3
(g4
g5
(lp1151
g3
(g4
g5
(lp1152
g3
(g4
g5
(lp1153
g1023
atp1154
Rp1155
(dp1156
g13
VPRP
p1157
sbatp1158
Rp1159
(dp1160
g13
VNP
p1161
sbag3
(g4
g5
(lp1162
g3
(g4
g5
(lp1163
Vseek
p1164
atp1165
Rp1166
(dp1167
g13
VVBP
p1168
sbatp1169
Rp1170
(dp1171
g13
VVP
p1172
sbatp1173
Rp1174
(dp1175
g13
g165
sbatp1176
Rp1177
(dp1178
g13
g1093
sbag3
(g4
g5
(lp1179
g3
(g4
g5
(lp1180
Vand
p1181
atp1182
Rp1183
(dp1184
g13
g538
sbag3
(g4
g5
(lp1185
g3
(g4
g5
(lp1186
Vfinding
p1187
atp1188
Rp1189
(dp1190
g13
g251
sbag3
(g4
g5
(lp1191
g3
(g4
g5
(lp1192
Vonly
p1193
atp1194
Rp1195
(dp1196
g13
g448
sbag3
(g4
g5
(lp1197
Vthe
p1198
atp1199
Rp1200
(dp1201
g13
g104
sbag3
(g4
g5
(lp1202
Vsame
p1203
atp1204
Rp1205
(dp1206
g13
g448
sbag3
(g4
g5
(lp1207
Vold
p1208
atp1209
Rp1210
(dp1211
g13
g448
sbag3
(g4
g5
(lp1212
Vstupid
p1213
atp1214
Rp1215
(dp1216
g13
g448
sbag3
(g4
g5
(lp1217
Vplan
p1218
atp1219
Rp1220
(dp1221
g13
g110
sbatp1222
Rp1223
(dp1224
g13
g114
sbatp1225
Rp1226
(dp1227
g13
g154
sbatp1228
Rp1229
(dp1230
g13
VUCP
p1231
sbag3
(g4
g5
(lp1232
g3
(g4
g5
(lp1233
Vof
p1234
atp1235
Rp1236
(dp1237
g13
g217
sbag3
(g4
g5
(lp1238
g3
(g4
g5
(lp1239
g3
(g4
g5
(lp1240
Vdog
p1241
atp1242
Rp1243
(dp1244
g13
VNN
p1245
sbatp1246
Rp1247
(dp1248
g13
VNP
p1249
sbag3
(g4
g5
(lp1250
g3
(g4
g5
(lp1251
Veat
p1252
atp1253
Rp1254
(dp1255
g13
g32
sbag3
(g4
g5
(lp1256
g3
(g4
g5
(lp1257
Vdog
p1258
atp1259
Rp1260
(dp1261
g13
VNN
p1262
sbatp1263
Rp1264
(dp1265
g13
VNP
p1266
sbatp1267
Rp1268
(dp1269
g13
g58
sbatp1270
Rp1271
(dp1272
g13
g165
sbag3
(g4
g5
(lp1273
g811
atp1274
Rp1275
(dp1276
g13
g815
sbag3
(g4
g5
(lp1277
g3
(g4
g5
(lp1278
g3
(g4
g5
(lp1279
Vof
p1280
atp1281
Rp1282
(dp1283
g13
g217
sbag3
(g4
g5
(lp1284
g3
(g4
g5
(lp1285
Vmighty
p1286
atp1287
Rp1288
(dp1289
g13
VNN
p1290
sbatp1291
Rp1292
(dp1293
g13
VNP
p1294
sbatp1295
Rp1296
(dp1297
g13
g235
sbag3
(g4
g5
(lp1298
g3
(g4
g5
(lp1299
Vcrush
p1300
atp1301
Rp1302
(dp1303
g13
g32
sbag3
(g4
g5
(lp1304
g3
(g4
g5
(lp1305
Vthe
p1306
atp1307
Rp1308
(dp1309
g13
g104
sbag3
(g4
g5
(lp1310
Vweak
p1311
atp1312
Rp1313
(dp1314
g13
g110
sbatp1315
Rp1316
(dp1317
g13
g114
sbatp1318
Rp1319
(dp1320
g13
g58
sbag3
(g4
g5
(lp1321
g64
atp1322
Rp1323
(dp1324
g13
g68
sbatp1325
Rp1326
(dp1327
g13
g165
sbatp1328
Rp1329
(dp1330
g13
VS+SBAR
p1331
sbag340
ag340
ag3
(g4
g5
(lp1332
g3
(g4
g5
(lp1333
Vtangled
p1334
atp1335
Rp1336
(dp1337
g13
g132
sbag3
(g4
g5
(lp1338
g3
(g4
g5
(lp1339
Vin
p1340
atp1341
Rp1342
(dp1343
g13
g217
sbag3
(g4
g5
(lp1344
g3
(g4
g5
(lp1345
Vthat
p1346
atp1347
Rp1348
(dp1349
g13
g104
sbag3
(g4
g5
(lp1350
Vancient
p1351
atp1352
Rp1353
(dp1354
g13
g448
sbag3
(g4
g5
(lp1355
Vendless
p1356
atp1357
Rp1358
(dp1359
g13
g448
sbag3
(g4
g5
(lp1360
Vchain
p1361
atp1362
Rp1363
(dp1364
g13
g110
sbatp1365
Rp1366
(dp1367
g13
g114
sbatp1368
Rp1369
(dp1370
g13
g235
sbatp1371
Rp1372
(dp1373
g13
VRRC+VP
p1374
sbag3
(g4
g5
(lp1375
g3
(g4
g5
(lp1376
Vof
p1377
atp1378
Rp1379
(dp1380
g13
g217
sbag3
(g4
g5
(lp1381
g3
(g4
g5
(lp1382
g3
(g4
g5
(lp1383
Vprofit
p1384
atp1385
Rp1386
(dp1387
g13
VNN
p1388
sbatp1389
Rp1390
(dp1391
g13
VNP
p1392
sbag3
(g4
g5
(lp1393
g811
atp1394
Rp1395
(dp1396
g13
g815
sbag3
(g4
g5
(lp1397
g3
(g4
g5
(lp1398
Vpower
p1399
atp1400
Rp1401
(dp1402
g13
VNN
p1403
sbatp1404
Rp1405
(dp1406
g13
VNP
p1407
sbag3
(g4
g5
(lp1408
g811
atp1409
Rp1410
(dp1411
g13
g815
sbag3
(g4
g5
(lp1412
g3
(g4
g5
(lp1413
Vgain
p1414
atp1415
Rp1416
(dp1417
g13
g32
sbag3
(g4
g5
(lp1418
g811
atp1419
Rp1420
(dp1421
g13
g815
sbag3
(g4
g5
(lp1422
g3
(g4
g5
(lp1423
Vof
p1424
atp1425
Rp1426
(dp1427
g13
g217
sbag3
(g4
g5
(lp1428
g3
(g4
g5
(lp1429
Vgrab
p1430
atp1431
Rp1432
(dp1433
g13
g448
sbag3
(g4
g5
(lp1434
Vthe
p1435
atp1436
Rp1437
(dp1438
g13
g104
sbag3
(g4
g5
(lp1439
Vland
p1440
atp1441
Rp1442
(dp1443
g13
g110
sbatp1444
Rp1445
(dp1446
g13
g114
sbatp1447
Rp1448
(dp1449
g13
g235
sbatp1450
Rp1451
(dp1452
g13
g58
sbag3
(g4
g5
(lp1453
V!
p1454
atp1455
Rp1456
(dp1457
g13
g68
sbatp1458
Rp1459
(dp1460
g13
g165
sbatp1461
Rp1462
(dp1463
g13
g631
sbag3
(g4
g5
(lp1464
g3
(g4
g5
(lp1465
Vof
p1466
atp1467
Rp1468
(dp1469
g13
g217
sbag3
(g4
g5
(lp1470
g3
(g4
g5
(lp1471
g3
(g4
g5
(lp1472
g3
(g4
g5
(lp1473
Vgrab
p1474
atp1475
Rp1476
(dp1477
g13
g32
sbag3
(g4
g5
(lp1478
g3
(g4
g5
(lp1479
Vthe
p1480
atp1481
Rp1482
(dp1483
g13
g104
sbag3
(g4
g5
(lp1484
Vgold
p1485
atp1486
Rp1487
(dp1488
g13
g110
sbatp1489
Rp1490
(dp1491
g13
g114
sbatp1492
Rp1493
(dp1494
g13
g58
sbag3
(g4
g5
(lp1495
g1454
atp1496
Rp1497
(dp1498
g13
g68
sbatp1499
Rp1500
(dp1501
g13
g165
sbag3
(g4
g5
(lp1502
g3
(g4
g5
(lp1503
VOf
p1504
atp1505
Rp1506
(dp1507
g13
g1049
sbag3
(g4
g5
(lp1508
Vgrab
p1509
atp1510
Rp1511
(dp1512
g13
g1049
sbatp1513
Rp1514
(dp1515
g13
g114
sbag3
(g4
g5
(lp1516
g3
(g4
g5
(lp1517
g3
(g4
g5
(lp1518
Vthe
p1519
atp1520
Rp1521
(dp1522
g13
g104
sbag3
(g4
g5
(lp1523
Vways
p1524
atp1525
Rp1526
(dp1527
g13
g999
sbatp1528
Rp1529
(dp1530
g13
g114
sbag3
(g4
g5
(lp1531
g3
(g4
g5
(lp1532
Vof
p1533
atp1534
Rp1535
(dp1536
g13
g217
sbag3
(g4
g5
(lp1537
g3
(g4
g5
(lp1538
Vsatisfying
p1539
atp1540
Rp1541
(dp1542
g13
g251
sbag3
(g4
g5
(lp1543
Vneed
p1544
atp1545
Rp1546
(dp1547
g13
g110
sbatp1548
Rp1549
(dp1550
g13
g114
sbatp1551
Rp1552
(dp1553
g13
g235
sbatp1554
Rp1555
(dp1556
g13
g58
sbag3
(g4
g5
(lp1557
g1454
atp1558
Rp1559
(dp1560
g13
g68
sbatp1561
Rp1562
(dp1563
g13
g165
sbatp1564
Rp1565
(dp1566
g13
g631
sbag3
(g4
g5
(lp1567
g3
(g4
g5
(lp1568
Vof
p1569
atp1570
Rp1571
(dp1572
g13
g217
sbag3
(g4
g5
(lp1573
g3
(g4
g5
(lp1574
g3
(g4
g5
(lp1575
g3
(g4
g5
(lp1576
Vwork
p1577
atp1578
Rp1579
(dp1580
g13
g32
sbag3
(g4
g5
(lp1581
g3
(g4
g5
(lp1582
Vthe
p1583
atp1584
Rp1585
(dp1586
g13
g104
sbag3
(g4
g5
(lp1587
Vmen
p1588
atp1589
Rp1590
(dp1591
g13
g999
sbatp1592
Rp1593
(dp1594
g13
g114
sbatp1595
Rp1596
(dp1597
g13
g58
sbag3
(g4
g5
(lp1598
g1454
atp1599
Rp1600
(dp1601
g13
g68
sbatp1602
Rp1603
(dp1604
g13
g165
sbag3
(g4
g5
(lp1605
g3
(g4
g5
(lp1606
VOf
p1607
atp1608
Rp1609
(dp1610
g13
VNNP
p1611
sbatp1612
Rp1613
(dp1614
g13
VNP
p1615
sbag3
(g4
g5
(lp1616
g3
(g4
g5
(lp1617
Vtake
p1618
atp1619
Rp1620
(dp1621
g13
g32
sbag3
(g4
g5
(lp1622
g3
(g4
g5
(lp1623
Vthe
p1624
atp1625
Rp1626
(dp1627
g13
g104
sbag3
(g4
g5
(lp1628
Vpay
p1629
atp1630
Rp1631
(dp1632
g13
g110
sbatp1633
Rp1634
(dp1635
g13
g114
sbatp1636
Rp1637
(dp1638
g13
g58
sbag3
(g4
g5
(lp1639
g1454
atp1640
Rp1641
(dp1642
g13
g68
sbatp1643
Rp1644
(dp1645
g13
g165
sbatp1646
Rp1647
(dp1648
g13
g631
sbag3
(g4
g5
(lp1649
g3
(g4
g5
(lp1650
Vof
p1651
atp1652
Rp1653
(dp1654
g13
g217
sbag3
(g4
g5
(lp1655
g3
(g4
g5
(lp1656
g3
(g4
g5
(lp1657
Vowning
p1658
atp1659
Rp1660
(dp1661
g13
g251
sbag3
(g4
g5
(lp1662
Veverything
p1663
atp1664
Rp1665
(dp1666
g13
g251
sbag3
(g4
g5
(lp1667
g3
(g4
g5
(lp1668
Vfor
p1669
atp1670
Rp1671
(dp1672
g13
g217
sbag3
(g4
g5
(lp1673
g3
(g4
g5
(lp1674
Vones
p1675
atp1676
Rp1677
(dp1678
g13
VNNS
p1679
sbatp1680
Rp1681
(dp1682
g13
VNP
p1683
sbatp1684
Rp1685
(dp1686
g13
g235
sbatp1687
Rp1688
(dp1689
g13
g154
sbag3
(g4
g5
(lp1690
g3
(g4
g5
(lp1691
Vown
p1692
atp1693
Rp1694
(dp1695
g13
g32
sbag3
(g4
g5
(lp1696
g3
(g4
g5
(lp1697
Vgreed
p1698
atp1699
Rp1700
(dp1701
g13
VVBN
p1702
sbatp1703
Rp1704
(dp1705
g13
VVP
p1706
sbatp1707
Rp1708
(dp1709
g13
g58
sbag3
(g4
g5
(lp1710
g1454
atp1711
Rp1712
(dp1713
g13
g68
sbatp1714
Rp1715
(dp1716
g13
g165
sbatp1717
Rp1718
(dp1719
g13
g631
sbag340
ag3
(g4
g5
(lp1720
g3
(g4
g5
(lp1721
g3
(g4
g5
(lp1722
g3
(g4
g5
(lp1723
g1023
atp1724
Rp1725
(dp1726
g13
VPRP
p1727
sbatp1728
Rp1729
(dp1730
g13
VNP
p1731
sbag3
(g4
g5
(lp1732
g3
(g4
g5
(lp1733
Vam
p1734
atp1735
Rp1736
(dp1737
g13
g32
sbag3
(g4
g5
(lp1738
g3
(g4
g5
(lp1739
Vthe
p1740
atp1741
Rp1742
(dp1743
g13
g104
sbag3
(g4
g5
(lp1744
Vfarmer
p1745
atp1746
Rp1747
(dp1748
g13
g110
sbatp1749
Rp1750
(dp1751
g13
g114
sbatp1752
Rp1753
(dp1754
g13
g58
sbatp1755
Rp1756
(dp1757
g13
g165
sbag3
(g4
g5
(lp1758
g811
atp1759
Rp1760
(dp1761
g13
g815
sbag3
(g4
g5
(lp1762
g3
(g4
g5
(lp1763
g3
(g4
g5
(lp1764
Vbondsman
p1765
atp1766
Rp1767
(dp1768
g13
g32
sbag3
(g4
g5
(lp1769
g3
(g4
g5
(lp1770
Vto
p1771
atp1772
Rp1773
(dp1774
g13
g139
sbag3
(g4
g5
(lp1775
g3
(g4
g5
(lp1776
Vthe
p1777
atp1778
Rp1779
(dp1780
g13
g104
sbag3
(g4
g5
(lp1781
Vsoil
p1782
atp1783
Rp1784
(dp1785
g13
g110
sbatp1786
Rp1787
(dp1788
g13
g114
sbatp1789
Rp1790
(dp1791
g13
g235
sbatp1792
Rp1793
(dp1794
g13
g58
sbag3
(g4
g5
(lp1795
g64
atp1796
Rp1797
(dp1798
g13
g68
sbatp1799
Rp1800
(dp1801
g13
g165
sbatp1802
Rp1803
(dp1804
g13
g1331
sbag3
(g4
g5
(lp1805
g3
(g4
g5
(lp1806
g3
(g4
g5
(lp1807
g3
(g4
g5
(lp1808
g1023
atp1809
Rp1810
(dp1811
g13
VPRP
p1812
sbatp1813
Rp1814
(dp1815
g13
VNP
p1816
sbag3
(g4
g5
(lp1817
g3
(g4
g5
(lp1818
Vam
p1819
atp1820
Rp1821
(dp1822
g13
g32
sbag3
(g4
g5
(lp1823
g3
(g4
g5
(lp1824
Vthe
p1825
atp1826
Rp1827
(dp1828
g13
g104
sbag3
(g4
g5
(lp1829
Vworker
p1830
atp1831
Rp1832
(dp1833
g13
g110
sbatp1834
Rp1835
(dp1836
g13
g114
sbatp1837
Rp1838
(dp1839
g13
g58
sbatp1840
Rp1841
(dp1842
g13
g165
sbag3
(g4
g5
(lp1843
g3
(g4
g5
(lp1844
g3
(g4
g5
(lp1845
Vsold
p1846
atp1847
Rp1848
(dp1849
g13
g132
sbag3
(g4
g5
(lp1850
g3
(g4
g5
(lp1851
Vto
p1852
atp1853
Rp1854
(dp1855
g13
g139
sbag3
(g4
g5
(lp1856
g3
(g4
g5
(lp1857
Vthe
p1858
atp1859
Rp1860
(dp1861
g13
g104
sbag3
(g4
g5
(lp1862
Vmachine
p1863
atp1864
Rp1865
(dp1866
g13
g110
sbatp1867
Rp1868
(dp1869
g13
g114
sbatp1870
Rp1871
(dp1872
g13
g235
sbatp1873
Rp1874
(dp1875
g13
g58
sbag3
(g4
g5
(lp1876
g64
atp1877
Rp1878
(dp1879
g13
g68
sbatp1880
Rp1881
(dp1882
g13
g165
sbatp1883
Rp1884
(dp1885
g13
g1093
sbag3
(g4
g5
(lp1886
g3
(g4
g5
(lp1887
g3
(g4
g5
(lp1888
g3
(g4
g5
(lp1889
g1023
atp1890
Rp1891
(dp1892
g13
VPRP
p1893
sbatp1894
Rp1895
(dp1896
g13
VNP
p1897
sbag3
(g4
g5
(lp1898
g3
(g4
g5
(lp1899
Vam
p1900
atp1901
Rp1902
(dp1903
g13
g32
sbag3
(g4
g5
(lp1904
g3
(g4
g5
(lp1905
Vthe
p1906
atp1907
Rp1908
(dp1909
g13
g104
sbag3
(g4
g5
(lp1910
VNegro
p1911
atp1912
Rp1913
(dp1914
g13
g1049
sbatp1915
Rp1916
(dp1917
g13
g114
sbatp1918
Rp1919
(dp1920
g13
g58
sbatp1921
Rp1922
(dp1923
g13
g165
sbag3
(g4
g5
(lp1924
g811
atp1925
Rp1926
(dp1927
g13
g815
sbag3
(g4
g5
(lp1928
g3
(g4
g5
(lp1929
g3
(g4
g5
(lp1930
Vservant
p1931
atp1932
Rp1933
(dp1934
g13
g32
sbag3
(g4
g5
(lp1935
g3
(g4
g5
(lp1936
Vto
p1937
atp1938
Rp1939
(dp1940
g13
g139
sbag3
(g4
g5
(lp1941
g3
(g4
g5
(lp1942
g3
(g4
g5
(lp1943
Vyou
p1944
atp1945
Rp1946
(dp1947
g13
VPRP
p1948
sbatp1949
Rp1950
(dp1951
g13
VNP
p1952
sbag3
(g4
g5
(lp1953
g3
(g4
g5
(lp1954
Vall
p1955
atp1956
Rp1957
(dp1958
g13
VRB
p1959
sbatp1960
Rp1961
(dp1962
g13
VADVP
p1963
sbatp1964
Rp1965
(dp1966
g13
g58
sbatp1967
Rp1968
(dp1969
g13
g154
sbatp1970
Rp1971
(dp1972
g13
g58
sbag3
(g4
g5
(lp1973
g64
atp1974
Rp1975
(dp1976
g13
g68
sbatp1977
Rp1978
(dp1979
g13
g165
sbatp1980
Rp1981
(dp1982
g13
g1331
sbag3
(g4
g5
(lp1983
g3
(g4
g5
(lp1984
g3
(g4
g5
(lp1985
g3
(g4
g5
(lp1986
g1023
atp1987
Rp1988
(dp1989
g13
VPRP
p1990
sbatp1991
Rp1992
(dp1993
g13
VNP
p1994
sbag3
(g4
g5
(lp1995
g3
(g4
g5
(lp1996
Vam
p1997
atp1998
Rp1999
(dp2000
g13
g32
sbag3
(g4
g5
(lp2001
g3
(g4
g5
(lp2002
Vthe
p2003
atp2004
Rp2005
(dp2006
g13
g104
sbag3
(g4
g5
(lp2007
Vpeople
p2008
atp2009
Rp2010
(dp2011
g13
g999
sbatp2012
Rp2013
(dp2014
g13
g114
sbatp2015
Rp2016
(dp2017
g13
g58
sbatp2018
Rp2019
(dp2020
g13
g165
sbag3
(g4
g5
(lp2021
g811
atp2022
Rp2023
(dp2024
g13
g815
sbag3
(g4
g5
(lp2025
g3
(g4
g5
(lp2026
Vhumble
p2027
atp2028
Rp2029
(dp2030
g13
VVBZ
p2031
sbatp2032
Rp2033
(dp2034
g13
VVP
p2035
sbag3
(g4
g5
(lp2036
g811
atp2037
Rp2038
(dp2039
g13
g815
sbag3
(g4
g5
(lp2040
g3
(g4
g5
(lp2041
Vhungry
p2042
atp2043
Rp2044
(dp2045
g13
VVBZ
p2046
sbatp2047
Rp2048
(dp2049
g13
VVP
p2050
sbag3
(g4
g5
(lp2051
g3
(g4
g5
(lp2052
g811
atp2053
Rp2054
(dp2055
g13
g815
sbag3
(g4
g5
(lp2056
g3
(g4
g5
(lp2057
Vmean
p2058
atp2059
Rp2060
(dp2061
g13
VNN
p2062
sbatp2063
Rp2064
(dp2065
g13
VVP
p2066
sbatp2067
Rp2068
(dp2069
g13
g114
sbatp2070
Rp2071
(dp2072
g13
VSINV
p2073
sbag3
(g4
g5
(lp2074
g3
(g4
g5
(lp2075
g3
(g4
g5
(lp2076
Vhungry
p2077
atp2078
Rp2079
(dp2080
g13
g448
sbag3
(g4
g5
(lp2081
g3
(g4
g5
(lp2082
g3
(g4
g5
(lp2083
Vyet
p2084
atp2085
Rp2086
(dp2087
g13
VRB
p2088
sbatp2089
Rp2090
(dp2091
g13
VADVP
p2092
sbag3
(g4
g5
(lp2093
g3
(g4
g5
(lp2094
g3
(g4
g5
(lp2095
Vtoday
p2096
atp2097
Rp2098
(dp2099
g13
VNN
p2100
sbatp2101
Rp2102
(dp2103
g13
VNP
p2104
sbag3
(g4
g5
(lp2105
g3
(g4
g5
(lp2106
Vdespite
p2107
atp2108
Rp2109
(dp2110
g13
g217
sbag3
(g4
g5
(lp2111
g3
(g4
g5
(lp2112
Vthe
p2113
atp2114
Rp2115
(dp2116
g13
g104
sbag3
(g4
g5
(lp2117
Vdream
p2118
atp2119
Rp2120
(dp2121
g13
g110
sbatp2122
Rp2123
(dp2124
g13
g114
sbatp2125
Rp2126
(dp2127
g13
g235
sbatp2128
Rp2129
(dp2130
g13
g58
sbatp2131
Rp2132
(dp2133
g13
g154
sbatp2134
Rp2135
(dp2136
g13
g705
sbag3
(g4
g5
(lp2137
g64
atp2138
Rp2139
(dp2140
g13
g68
sbatp2141
Rp2142
(dp2143
g13
g713
sbag3
(g4
g5
(lp2144
g3
(g4
g5
(lp2145
g3
(g4
g5
(lp2146
Vbeaten
p2147
atp2148
Rp2149
(dp2150
g13
g308
sbag3
(g4
g5
(lp2151
g3
(g4
g5
(lp2152
Vyet
p2153
atp2154
Rp2155
(dp2156
g13
g538
sbag3
(g4
g5
(lp2157
g3
(g4
g5
(lp2158
Vtoday
p2159
atp2160
Rp2161
(dp2162
g13
VNN
p2163
sbatp2164
Rp2165
(dp2166
g13
VNP
p2167
sbag3
(g4
g5
(lp2168
g811
atp2169
Rp2170
(dp2171
g13
g815
sbag3
(g4
g5
(lp2172
g3
(g4
g5
(lp2173
VPioneers
p2174
atp2175
Rp2176
(dp2177
g13
VNNP
p2178
sbatp2179
Rp2180
(dp2181
g13
VNP
p2182
sbatp2183
Rp2184
(dp2185
g13
g114
sbatp2186
Rp2187
(dp2188
g13
g62
sbag3
(g4
g5
(lp2189
g1454
atp2190
Rp2191
(dp2192
g13
g68
sbatp2193
Rp2194
(dp2195
g13
g72
sbag340
ag3
(g4
g5
(lp2196
g3
(g4
g5
(lp2197
g3
(g4
g5
(lp2198
Vthe
p2199
atp2200
Rp2201
(dp2202
g13
g104
sbag3
(g4
g5
(lp2203
Vpoorest
p2204
atp2205
Rp2206
(dp2207
g13
g448
sbag3
(g4
g5
(lp2208
Vworker
p2209
atp2210
Rp2211
(dp2212
g13
g110
sbatp2213
Rp2214
(dp2215
g13
g114
sbag3
(g4
g5
(lp2216
g3
(g4
g5
(lp2217
Vbartered
p2218
atp2219
Rp2220
(dp2221
g13
g132
sbag3
(g4
g5
(lp2222
g3
(g4
g5
(lp2223
Vthrough
p2224
atp2225
Rp2226
(dp2227
g13
g217
sbag3
(g4
g5
(lp2228
g3
(g4
g5
(lp2229
Vthe
p2230
atp2231
Rp2232
(dp2233
g13
g104
sbag3
(g4
g5
(lp2234
Vyears
p2235
atp2236
Rp2237
(dp2238
g13
g999
sbatp2239
Rp2240
(dp2241
g13
g114
sbatp2242
Rp2243
(dp2244
g13
g235
sbatp2245
Rp2246
(dp2247
g13
g58
sbag3
(g4
g5
(lp2248
g64
atp2249
Rp2250
(dp2251
g13
g68
sbatp2252
Rp2253
(dp2254
g13
g165
sbag340
ag3
(g4
g5
(lp2255
g3
(g4
g5
(lp2256
g3
(g4
g5
(lp2257
Vyet
p2258
atp2259
Rp2260
(dp2261
g13
VRB
p2262
sbatp2263
Rp2264
(dp2265
g13
VADVP
p2266
sbag3
(g4
g5
(lp2267
g3
(g4
g5
(lp2268
g3
(g4
g5
(lp2269
VIm
p2270
atp2271
Rp2272
(dp2273
g13
g1049
sbag3
(g4
g5
(lp2274
Vthe
p2275
atp2276
Rp2277
(dp2278
g13
g104
sbag3
(g4
g5
(lp2279
Vone
p2280
atp2281
Rp2282
(dp2283
g13
g110
sbatp2284
Rp2285
(dp2286
g13
g114
sbag3
(g4
g5
(lp2287
g3
(g4
g5
(lp2288
g3
(g4
g5
(lp2289
Vwho
p2290
atp2291
Rp2292
(dp2293
g13
VWP
p2294
sbatp2295
Rp2296
(dp2297
g13
VWHNP
p2298
sbag3
(g4
g5
(lp2299
g3
(g4
g5
(lp2300
Vdreamt
p2301
atp2302
Rp2303
(dp2304
g13
g308
sbag3
(g4
g5
(lp2305
g3
(g4
g5
(lp2306
Vour
p2307
atp2308
Rp2309
(dp2310
g13
g970
sbag3
(g4
g5
(lp2311
Vbasic
p2312
atp2313
Rp2314
(dp2315
g13
g448
sbag3
(g4
g5
(lp2316
Vdream
p2317
atp2318
Rp2319
(dp2320
g13
g110
sbatp2321
Rp2322
(dp2323
g13
g114
sbatp2324
Rp2325
(dp2326
g13
g154
sbatp2327
Rp2328
(dp2329
g13
g333
sbatp2330
Rp2331
(dp2332
g13
g58
sbatp2333
Rp2334
(dp2335
g13
VNP+SBAR+WHNP+S+VP
p2336
sbag340
ag340
ag3
(g4
g5
(lp2337
g3
(g4
g5
(lp2338
g3
(g4
g5
(lp2339
Vthat
p2340
atp2341
Rp2342
(dp2343
g13
VWDT
p2344
sbatp2345
Rp2346
(dp2347
g13
VWHNP
p2348
sbag3
(g4
g5
(lp2349
g3
(g4
g5
(lp2350
g3
(g4
g5
(lp2351
Veven
p2352
atp2353
Rp2354
(dp2355
g13
VRB
p2356
sbatp2357
Rp2358
(dp2359
g13
VADVP
p2360
sbag3
(g4
g5
(lp2361
g3
(g4
g5
(lp2362
g3
(g4
g5
(lp2363
Vyet
p2364
atp2365
Rp2366
(dp2367
g13
VRB
p2368
sbatp2369
Rp2370
(dp2371
g13
VADVP
p2372
sbag3
(g4
g5
(lp2373
g3
(g4
g5
(lp2374
g3
(g4
g5
(lp2375
Vits
p2376
atp2377
Rp2378
(dp2379
g13
g970
sbag3
(g4
g5
(lp2380
Vmighty
p2381
atp2382
Rp2383
(dp2384
g13
g110
sbatp2385
Rp2386
(dp2387
g13
g114
sbag3
(g4
g5
(lp2388
Vdaring
p2389
atp2390
Rp2391
(dp2392
g13
g110
sbag3
(g4
g5
(lp2393
Vsings
p2394
atp2395
Rp2396
(dp2397
g13
g308
sbatp2398
Rp2399
(dp2400
g13
g114
sbatp2401
Rp2402
(dp2403
g13
g58
sbatp2404
Rp2405
(dp2406
g13
g154
sbatp2407
Rp2408
(dp2409
g13
g333
sbag3
(g4
g5
(lp2410
g3
(g4
g5
(lp2411
g3
(g4
g5
(lp2412
Vin
p2413
atp2414
Rp2415
(dp2416
g13
g217
sbag3
(g4
g5
(lp2417
g3
(g4
g5
(lp2418
Vevery
p2419
atp2420
Rp2421
(dp2422
g13
g104
sbag3
(g4
g5
(lp2423
Vbrick
p2424
atp2425
Rp2426
(dp2427
g13
g110
sbatp2428
Rp2429
(dp2430
g13
g114
sbatp2431
Rp2432
(dp2433
g13
g235
sbag3
(g4
g5
(lp2434
Vand
p2435
atp2436
Rp2437
(dp2438
g13
g538
sbag3
(g4
g5
(lp2439
Vstone
p2440
atp2441
Rp2442
(dp2443
g13
g110
sbag3
(g4
g5
(lp2444
g811
atp2445
Rp2446
(dp2447
g13
g815
sbag3
(g4
g5
(lp2448
g3
(g4
g5
(lp2449
g3
(g4
g5
(lp2450
Vin
p2451
atp2452
Rp2453
(dp2454
g13
g217
sbag3
(g4
g5
(lp2455
g3
(g4
g5
(lp2456
Vevery
p2457
atp2458
Rp2459
(dp2460
g13
g104
sbag3
(g4
g5
(lp2461
Vfurrow
p2462
atp2463
Rp2464
(dp2465
g13
g110
sbatp2466
Rp2467
(dp2468
g13
g114
sbatp2469
Rp2470
(dp2471
g13
VADVP
p2472
sbag3
(g4
g5
(lp2473
Vturned
p2474
atp2475
Rp2476
(dp2477
g13
g132
sbatp2478
Rp2479
(dp2480
g13
g705
sbatp2481
Rp2482
(dp2483
g13
g1231
sbag3
(g4
g5
(lp2484
g3
(g4
g5
(lp2485
g3
(g4
g5
(lp2486
Vthats
p2487
atp2488
Rp2489
(dp2490
g13
g308
sbag3
(g4
g5
(lp2491
Vmade
p2492
atp2493
Rp2494
(dp2495
g13
g79
sbag3
(g4
g5
(lp2496
g3
(g4
g5
(lp2497
VAmerica
p2498
atp2499
Rp2500
(dp2501
g13
g1049
sbag3
(g4
g5
(lp2502
Vthe
p2503
atp2504
Rp2505
(dp2506
g13
g104
sbag3
(g4
g5
(lp2507
g3
(g4
g5
(lp2508
Vland
p2509
atp2510
Rp2511
(dp2512
g13
VNN
p2513
sbatp2514
Rp2515
(dp2516
g13
VNP
p2517
sbag3
(g4
g5
(lp2518
g3
(g4
g5
(lp2519
g3
(g4
g5
(lp2520
Vit
p2521
atp2522
Rp2523
(dp2524
g13
VPRP
p2525
sbatp2526
Rp2527
(dp2528
g13
VNP
p2529
sbag3
(g4
g5
(lp2530
g3
(g4
g5
(lp2531
Vhas
p2532
atp2533
Rp2534
(dp2535
g13
VVBZ
p2536
sbatp2537
Rp2538
(dp2539
g13
VVP
p2540
sbatp2541
Rp2542
(dp2543
g13
g692
sbatp2544
Rp2545
(dp2546
g13
g114
sbag3
(g4
g5
(lp2547
g3
(g4
g5
(lp2548
Vbecome
p2549
atp2550
Rp2551
(dp2552
g13
VVB
p2553
sbatp2554
Rp2555
(dp2556
g13
VVP
p2557
sbatp2558
Rp2559
(dp2560
g13
g62
sbag3
(g4
g5
(lp2561
g64
atp2562
Rp2563
(dp2564
g13
g68
sbatp2565
Rp2566
(dp2567
g13
g72
sbag3
(g4
g5
(lp2568
g3
(g4
g5
(lp2569
g3
(g4
g5
(lp2570
VO
p2571
atp2572
Rp2573
(dp2574
g13
VNN
p2575
sbatp2576
Rp2577
(dp2578
g13
VNP
p2579
sbag3
(g4
g5
(lp2580
g811
atp2581
Rp2582
(dp2583
g13
g815
sbag3
(g4
g5
(lp2584
g3
(g4
g5
(lp2585
VIm
p2586
atp2587
Rp2588
(dp2589
g13
g1049
sbag3
(g4
g5
(lp2590
Vthe
p2591
atp2592
Rp2593
(dp2594
g13
g104
sbag3
(g4
g5
(lp2595
Vman
p2596
atp2597
Rp2598
(dp2599
g13
g110
sbag3
(g4
g5
(lp2600
g3
(g4
g5
(lp2601
g3
(g4
g5
(lp2602
Vwho
p2603
atp2604
Rp2605
(dp2606
g13
VWP
p2607
sbatp2608
Rp2609
(dp2610
g13
VWHNP
p2611
sbag3
(g4
g5
(lp2612
g3
(g4
g5
(lp2613
Vsailed
p2614
atp2615
Rp2616
(dp2617
g13
g79
sbag3
(g4
g5
(lp2618
g3
(g4
g5
(lp2619
Vthose
p2620
atp2621
Rp2622
(dp2623
g13
g104
sbag3
(g4
g5
(lp2624
Vearly
p2625
atp2626
Rp2627
(dp2628
g13
g448
sbag3
(g4
g5
(lp2629
Vseas
p2630
atp2631
Rp2632
(dp2633
g13
g110
sbatp2634
Rp2635
(dp2636
g13
g114
sbatp2637
Rp2638
(dp2639
g13
g154
sbatp2640
Rp2641
(dp2642
g13
g333
sbatp2643
Rp2644
(dp2645
g13
g114
sbatp2646
Rp2647
(dp2648
g13
VNP+VP
p2649
sbag3
(g4
g5
(lp2650
g3
(g4
g5
(lp2651
g3
(g4
g5
(lp2652
Vin
p2653
atp2654
Rp2655
(dp2656
g13
g217
sbag3
(g4
g5
(lp2657
g3
(g4
g5
(lp2658
Vsearch
p2659
atp2660
Rp2661
(dp2662
g13
VNN
p2663
sbatp2664
Rp2665
(dp2666
g13
VNP
p2667
sbatp2668
Rp2669
(dp2670
g13
g235
sbag3
(g4
g5
(lp2671
g3
(g4
g5
(lp2672
Vof
p2673
atp2674
Rp2675
(dp2676
g13
g217
sbag3
(g4
g5
(lp2677
g3
(g4
g5
(lp2678
g3
(g4
g5
(lp2679
Vwhat
p2680
atp2681
Rp2682
(dp2683
g13
VWP
p2684
sbatp2685
Rp2686
(dp2687
g13
VWHNP
p2688
sbag3
(g4
g5
(lp2689
g3
(g4
g5
(lp2690
g3
(g4
g5
(lp2691
g1023
atp2692
Rp2693
(dp2694
g13
VPRP
p2695
sbatp2696
Rp2697
(dp2698
g13
VNP
p2699
sbag3
(g4
g5
(lp2700
g3
(g4
g5
(lp2701
Vmeant
p2702
atp2703
Rp2704
(dp2705
g13
g32
sbag3
(g4
g5
(lp2706
g3
(g4
g5
(lp2707
Vto
p2708
atp2709
Rp2710
(dp2711
g13
g139
sbag3
(g4
g5
(lp2712
g3
(g4
g5
(lp2713
Vbe
p2714
atp2715
Rp2716
(dp2717
g13
g32
sbag3
(g4
g5
(lp2718
g3
(g4
g5
(lp2719
Vmy
p2720
atp2721
Rp2722
(dp2723
g13
g970
sbag3
(g4
g5
(lp2724
Vhome
p2725
atp2726
Rp2727
(dp2728
g13
g110
sbatp2729
Rp2730
(dp2731
g13
g114
sbatp2732
Rp2733
(dp2734
g13
g58
sbatp2735
Rp2736
(dp2737
g13
g154
sbatp2738
Rp2739
(dp2740
g13
g58
sbatp2741
Rp2742
(dp2743
g13
g165
sbatp2744
Rp2745
(dp2746
g13
g333
sbatp2747
Rp2748
(dp2749
g13
g235
sbatp2750
Rp2751
(dp2752
g13
VNP+PP
p2753
sbag340
ag340
ag3
(g4
g5
(lp2754
g3
(g4
g5
(lp2755
Vand
p2756
atp2757
Rp2758
(dp2759
g13
g538
sbag3
(g4
g5
(lp2760
g3
(g4
g5
(lp2761
g3
(g4
g5
(lp2762
Vtorn
p2763
atp2764
Rp2765
(dp2766
g13
g448
sbag3
(g4
g5
(lp2767
g3
(g4
g5
(lp2768
Vfrom
p2769
atp2770
Rp2771
(dp2772
g13
g217
sbag3
(g4
g5
(lp2773
g3
(g4
g5
(lp2774
VBlack
p2775
atp2776
Rp2777
(dp2778
g13
g1049
sbag3
(g4
g5
(lp2779
VAfricas
p2780
atp2781
Rp2782
(dp2783
g13
g1049
sbatp2784
Rp2785
(dp2786
g13
g114
sbatp2787
Rp2788
(dp2789
g13
g235
sbatp2790
Rp2791
(dp2792
g13
g705
sbag3
(g4
g5
(lp2793
Vstrand
p2794
atp2795
Rp2796
(dp2797
g13
g448
sbag3
(g4
g5
(lp2798
g3
(g4
g5
(lp2799
g3
(g4
g5
(lp2800
g1023
atp2801
Rp2802
(dp2803
g13
VPRP
p2804
sbatp2805
Rp2806
(dp2807
g13
VNP
p2808
sbag3
(g4
g5
(lp2809
g3
(g4
g5
(lp2810
Vcame
p2811
atp2812
Rp2813
(dp2814
g13
VVBD
p2815
sbatp2816
Rp2817
(dp2818
g13
VVP
p2819
sbatp2820
Rp2821
(dp2822
g13
g692
sbatp2823
Rp2824
(dp2825
g13
g705
sbatp2826
Rp2827
(dp2828
g13
VS+ADJP
p2829
sbag3
(g4
g5
(lp2830
g3
(g4
g5
(lp2831
Vto
p2832
atp2833
Rp2834
(dp2835
g13
g139
sbag3
(g4
g5
(lp2836
g3
(g4
g5
(lp2837
Vbuild
p2838
atp2839
Rp2840
(dp2841
g13
g32
sbag3
(g4
g5
(lp2842
g3
(g4
g5
(lp2843
g3
(g4
g5
(lp2844
g3
(g4
g5
(lp2845
g255
atp2846
Rp2847
(dp2848
g13
g104
sbag3
(g4
g5
(lp2849
Vhomeland
p2850
atp2851
Rp2852
(dp2853
g13
g110
sbatp2854
Rp2855
(dp2856
g13
g114
sbag3
(g4
g5
(lp2857
g3
(g4
g5
(lp2858
Vof
p2859
atp2860
Rp2861
(dp2862
g13
g217
sbag3
(g4
g5
(lp2863
g3
(g4
g5
(lp2864
Vthe
p2865
atp2866
Rp2867
(dp2868
g13
g104
sbag3
(g4
g5
(lp2869
Vfree
p2870
atp2871
Rp2872
(dp2873
g13
g448
sbatp2874
Rp2875
(dp2876
g13
g114
sbatp2877
Rp2878
(dp2879
g13
g235
sbatp2880
Rp2881
(dp2882
g13
g58
sbag3
(g4
g5
(lp2883
g64
atp2884
Rp2885
(dp2886
g13
g68
sbatp2887
Rp2888
(dp2889
g13
g165
sbatp2890
Rp2891
(dp2892
g13
g58
sbatp2893
Rp2894
(dp2895
g13
VVP+S+VP
p2896
sbag340
ag3
(g4
g5
(lp2897
g3
(g4
g5
(lp2898
g3
(g4
g5
(lp2899
Vthe
p2900
atp2901
Rp2902
(dp2903
g13
g104
sbag3
(g4
g5
(lp2904
Vfree
p2905
atp2906
Rp2907
(dp2908
g13
g448
sbatp2909
Rp2910
(dp2911
g13
g705
sbag3
(g4
g5
(lp2912
g901
atp2913
Rp2914
(dp2915
g13
g68
sbatp2916
Rp2917
(dp2918
g13
g713
sbag340
ag3
(g4
g5
(lp2919
g3
(g4
g5
(lp2920
g3
(g4
g5
(lp2921
Vwho
p2922
atp2923
Rp2924
(dp2925
g13
VWP
p2926
sbatp2927
Rp2928
(dp2929
g13
VWHNP
p2930
sbag3
(g4
g5
(lp2931
g3
(g4
g5
(lp2932
Vsaid
p2933
atp2934
Rp2935
(dp2936
g13
g79
sbag3
(g4
g5
(lp2937
g3
(g4
g5
(lp2938
Vthe
p2939
atp2940
Rp2941
(dp2942
g13
g104
sbag3
(g4
g5
(lp2943
Vfree
p2944
atp2945
Rp2946
(dp2947
g13
g448
sbag3
(g4
g5
(lp2948
g901
atp2949
Rp2950
(dp2951
g13
g68
sbag3
(g4
g5
(lp2952
VNot
p2953
atp2954
Rp2955
(dp2956
g13
g1049
sbag3
(g4
g5
(lp2957
g3
(g4
g5
(lp2958
Vme
p2959
atp2960
Rp2961
(dp2962
g13
VPRP
p2963
sbatp2964
Rp2965
(dp2966
g13
VNP
p2967
sbatp2968
Rp2969
(dp2970
g13
g114
sbatp2971
Rp2972
(dp2973
g13
g62
sbag3
(g4
g5
(lp2974
g901
atp2975
Rp2976
(dp2977
g13
g68
sbatp2978
Rp2979
(dp2980
g13
g72
sbag3
(g4
g5
(lp2981
g3
(g4
g5
(lp2982
g3
(g4
g5
(lp2983
Vsurely
p2984
atp2985
Rp2986
(dp2987
g13
VRB
p2988
sbatp2989
Rp2990
(dp2991
g13
VADVP
p2992
sbag3
(g4
g5
(lp2993
g3
(g4
g5
(lp2994
Vnot
p2995
atp2996
Rp2997
(dp2998
g13
g611
sbag3
(g4
g5
(lp2999
g3
(g4
g5
(lp3000
Vme
p3001
atp3002
Rp3003
(dp3004
g13
VPRP
p3005
sbatp3006
Rp3007
(dp3008
g13
VNP
p3009
sbag3
(g4
g5
(lp3010
g3
(g4
g5
(lp3011
g901
atp3012
Rp3013
(dp3014
g13
g68
sbag3
(g4
g5
(lp3015
VThe
p3016
atp3017
Rp3018
(dp3019
g13
g104
sbag3
(g4
g5
(lp3020
g3
(g4
g5
(lp3021
Vmillions
p3022
atp3023
Rp3024
(dp3025
g13
VNNS
p3026
sbatp3027
Rp3028
(dp3029
g13
VNP
p3030
sbag3
(g4
g5
(lp3031
g3
(g4
g5
(lp3032
Von
p3033
atp3034
Rp3035
(dp3036
g13
g217
sbag3
(g4
g5
(lp3037
g3
(g4
g5
(lp3038
g3
(g4
g5
(lp3039
Vrelief
p3040
atp3041
Rp3042
(dp3043
g13
g32
sbag3
(g4
g5
(lp3044
g3
(g4
g5
(lp3045
Vtoday
p3046
atp3047
Rp3048
(dp3049
g13
VNN
p3050
sbatp3051
Rp3052
(dp3053
g13
VNP
p3054
sbatp3055
Rp3056
(dp3057
g13
g58
sbag3
(g4
g5
(lp3058
g901
atp3059
Rp3060
(dp3061
g13
g68
sbatp3062
Rp3063
(dp3064
g13
g165
sbatp3065
Rp3066
(dp3067
g13
g333
sbatp3068
Rp3069
(dp3070
g13
g114
sbatp3071
Rp3072
(dp3073
g13
g58
sbatp3074
Rp3075
(dp3076
g13
g2336
sbag3
(g4
g5
(lp3077
g3
(g4
g5
(lp3078
Vthe
p3079
atp3080
Rp3081
(dp3082
g13
g104
sbag3
(g4
g5
(lp3083
g3
(g4
g5
(lp3084
Vmillions
p3085
atp3086
Rp3087
(dp3088
g13
VNNS
p3089
sbatp3090
Rp3091
(dp3092
g13
VNP
p3093
sbag3
(g4
g5
(lp3094
g3
(g4
g5
(lp3095
Vshot
p3096
atp3097
Rp3098
(dp3099
g13
g132
sbag3
(g4
g5
(lp3100
g3
(g4
g5
(lp3101
Vdown
p3102
atp3103
Rp3104
(dp3105
g13
VRP
p3106
sbatp3107
Rp3108
(dp3109
g13
VPRT
p3110
sbag3
(g4
g5
(lp3111
g3
(g4
g5
(lp3112
g3
(g4
g5
(lp3113
Vwhen
p3114
atp3115
Rp3116
(dp3117
g13
VWRB
p3118
sbatp3119
Rp3120
(dp3121
g13
VWHADVP
p3122
sbag3
(g4
g5
(lp3123
g3
(g4
g5
(lp3124
g3
(g4
g5
(lp3125
Vwe
p3126
atp3127
Rp3128
(dp3129
g13
VPRP
p3130
sbatp3131
Rp3132
(dp3133
g13
VNP
p3134
sbag3
(g4
g5
(lp3135
g3
(g4
g5
(lp3136
Vstrike
p3137
atp3138
Rp3139
(dp3140
g13
VVB
p3141
sbatp3142
Rp3143
(dp3144
g13
VVP
p3145
sbatp3146
Rp3147
(dp3148
g13
g62
sbag3
(g4
g5
(lp3149
g901
atp3150
Rp3151
(dp3152
g13
g68
sbatp3153
Rp3154
(dp3155
g13
g72
sbatp3156
Rp3157
(dp3158
g13
g58
sbatp3159
Rp3160
(dp3161
g13
VNP+NP
p3162
sbag3
(g4
g5
(lp3163
g3
(g4
g5
(lp3164
g3
(g4
g5
(lp3165
Vthe
p3166
atp3167
Rp3168
(dp3169
g13
g104
sbag3
(g4
g5
(lp3170
g3
(g4
g5
(lp3171
Vmillions
p3172
atp3173
Rp3174
(dp3175
g13
VNNS
p3176
sbatp3177
Rp3178
(dp3179
g13
VNP
p3180
sbag3
(g4
g5
(lp3181
g3
(g4
g5
(lp3182
g3
(g4
g5
(lp3183
Vwho
p3184
atp3185
Rp3186
(dp3187
g13
VWP
p3188
sbatp3189
Rp3190
(dp3191
g13
VWHNP
p3192
sbag3
(g4
g5
(lp3193
g3
(g4
g5
(lp3194
Vhave
p3195
atp3196
Rp3197
(dp3198
g13
g14
sbag3
(g4
g5
(lp3199
g3
(g4
g5
(lp3200
Vnothing
p3201
atp3202
Rp3203
(dp3204
g13
VNN
p3205
sbatp3206
Rp3207
(dp3208
g13
VNP
p3209
sbatp3210
Rp3211
(dp3212
g13
g154
sbatp3213
Rp3214
(dp3215
g13
g333
sbag3
(g4
g5
(lp3216
g3
(g4
g5
(lp3217
Vfor
p3218
atp3219
Rp3220
(dp3221
g13
g217
sbag3
(g4
g5
(lp3222
g3
(g4
g5
(lp3223
Vour
p3224
atp3225
Rp3226
(dp3227
g13
g970
sbag3
(g4
g5
(lp3228
Vpay
p3229
atp3230
Rp3231
(dp3232
g13
g110
sbatp3233
Rp3234
(dp3235
g13
g114
sbatp3236
Rp3237
(dp3238
g13
g235
sbatp3239
Rp3240
(dp3241
g13
g114
sbag3
(g4
g5
(lp3242
g901
atp3243
Rp3244
(dp3245
g13
g68
sbatp3246
Rp3247
(dp3248
g13
g2073
sbag3
(g4
g5
(lp3249
g3
(g4
g5
(lp3250
Vfor
p3251
atp3252
Rp3253
(dp3254
g13
g217
sbag3
(g4
g5
(lp3255
g3
(g4
g5
(lp3256
g3
(g4
g5
(lp3257
Vall
p3258
atp3259
Rp3260
(dp3261
g13
g104
sbag3
(g4
g5
(lp3262
Vthe
p3263
atp3264
Rp3265
(dp3266
g13
g104
sbag3
(g4
g5
(lp3267
Vdreams
p3268
atp3269
Rp3270
(dp3271
g13
g110
sbatp3272
Rp3273
(dp3274
g13
g114
sbag3
(g4
g5
(lp3275
g3
(g4
g5
(lp3276
Vweve
p3277
atp3278
Rp3279
(dp3280
g13
g32
sbag3
(g4
g5
(lp3281
g3
(g4
g5
(lp3282
Vdreamed
p3283
atp3284
Rp3285
(dp3286
g13
VVBN
p3287
sbatp3288
Rp3289
(dp3290
g13
VVP
p3291
sbatp3292
Rp3293
(dp3294
g13
g58
sbatp3295
Rp3296
(dp3297
g13
g165
sbatp3298
Rp3299
(dp3300
g13
g631
sbag3
(g4
g5
(lp3301
g3
(g4
g5
(lp3302
Vand
p3303
atp3304
Rp3305
(dp3306
g13
g538
sbag3
(g4
g5
(lp3307
Vall
p3308
atp3309
Rp3310
(dp3311
g13
g104
sbag3
(g4
g5
(lp3312
Vthe
p3313
atp3314
Rp3315
(dp3316
g13
g104
sbag3
(g4
g5
(lp3317
Vsongs
p3318
atp3319
Rp3320
(dp3321
g13
g448
sbag3
(g4
g5
(lp3322
Vweve
p3323
atp3324
Rp3325
(dp3326
g13
g448
sbag3
(g4
g5
(lp3327
Vsung
p3328
atp3329
Rp3330
(dp3331
g13
g110
sbatp3332
Rp3333
(dp3334
g13
g3162
sbag3
(g4
g5
(lp3335
g3
(g4
g5
(lp3336
g3
(g4
g5
(lp3337
Vand
p3338
atp3339
Rp3340
(dp3341
g13
g538
sbag3
(g4
g5
(lp3342
Vall
p3343
atp3344
Rp3345
(dp3346
g13
VPDT
p3347
sbag3
(g4
g5
(lp3348
Vthe
p3349
atp3350
Rp3351
(dp3352
g13
g104
sbatp3353
Rp3354
(dp3355
g13
g114
sbag3
(g4
g5
(lp3356
g3
(g4
g5
(lp3357
Vhopes
p3358
atp3359
Rp3360
(dp3361
g13
g308
sbag3
(g4
g5
(lp3362
Vweve
p3363
atp3364
Rp3365
(dp3366
g13
g32
sbag3
(g4
g5
(lp3367
g3
(g4
g5
(lp3368
Vheld
p3369
atp3370
Rp3371
(dp3372
g13
VVBN
p3373
sbatp3374
Rp3375
(dp3376
g13
VVP
p3377
sbatp3378
Rp3379
(dp3380
g13
g58
sbatp3381
Rp3382
(dp3383
g13
VNP+S
p3384
sbag340
ag3
(g4
g5
(lp3385
g3
(g4
g5
(lp3386
g3
(g4
g5
(lp3387
Vthe
p3388
atp3389
Rp3390
(dp3391
g13
g104
sbag3
(g4
g5
(lp3392
g3
(g4
g5
(lp3393
Vmillions
p3394
atp3395
Rp3396
(dp3397
g13
VNNS
p3398
sbatp3399
Rp3400
(dp3401
g13
VNP
p3402
sbag3
(g4
g5
(lp3403
g3
(g4
g5
(lp3404
g3
(g4
g5
(lp3405
Vwho
p3406
atp3407
Rp3408
(dp3409
g13
VWP
p3410
sbatp3411
Rp3412
(dp3413
g13
VWHNP
p3414
sbag3
(g4
g5
(lp3415
g3
(g4
g5
(lp3416
Vhave
p3417
atp3418
Rp3419
(dp3420
g13
g14
sbag3
(g4
g5
(lp3421
g3
(g4
g5
(lp3422
Vnothing
p3423
atp3424
Rp3425
(dp3426
g13
VNN
p3427
sbatp3428
Rp3429
(dp3430
g13
VNP
p3431
sbatp3432
Rp3433
(dp3434
g13
g154
sbatp3435
Rp3436
(dp3437
g13
g333
sbatp3438
Rp3439
(dp3440
g13
g114
sbag3
(g4
g5
(lp3441
g3
(g4
g5
(lp3442
Vfor
p3443
atp3444
Rp3445
(dp3446
g13
g217
sbag3
(g4
g5
(lp3447
g3
(g4
g5
(lp3448
Vour
p3449
atp3450
Rp3451
(dp3452
g13
g970
sbag3
(g4
g5
(lp3453
Vpay
p3454
atp3455
Rp3456
(dp3457
g13
g110
sbatp3458
Rp3459
(dp3460
g13
g114
sbatp3461
Rp3462
(dp3463
g13
g235
sbatp3464
Rp3465
(dp3466
g13
VSQ+VP+VP
p3467
sbag3
(g4
g5
(lp3468
g3
(g4
g5
(lp3469
Vexcept
p3470
atp3471
Rp3472
(dp3473
g13
g217
sbag3
(g4
g5
(lp3474
g3
(g4
g5
(lp3475
g3
(g4
g5
(lp3476
Vthe
p3477
atp3478
Rp3479
(dp3480
g13
g104
sbag3
(g4
g5
(lp3481
Vdream
p3482
atp3483
Rp3484
(dp3485
g13
g448
sbag3
(g4
g5
(lp3486
Vthats
p3487
atp3488
Rp3489
(dp3490
g13
g110
sbatp3491
Rp3492
(dp3493
g13
g114
sbag3
(g4
g5
(lp3494
g3
(g4
g5
(lp3495
Valmost
p3496
atp3497
Rp3498
(dp3499
g13
g611
sbag3
(g4
g5
(lp3500
g3
(g4
g5
(lp3501
Vdead
p3502
atp3503
Rp3504
(dp3505
g13
VJJ
p3506
sbatp3507
Rp3508
(dp3509
g13
VADJP
p3510
sbag3
(g4
g5
(lp3511
g3
(g4
g5
(lp3512
Vtoday
p3513
atp3514
Rp3515
(dp3516
g13
VNN
p3517
sbatp3518
Rp3519
(dp3520
g13
VNP
p3521
sbatp3522
Rp3523
(dp3524
g13
g58
sbag3
(g4
g5
(lp3525
g64
atp3526
Rp3527
(dp3528
g13
g68
sbatp3529
Rp3530
(dp3531
g13
g165
sbatp3532
Rp3533
(dp3534
g13
g631
sbag340
ag3
(g4
g5
(lp3535
g3
(g4
g5
(lp3536
g3
(g4
g5
(lp3537
g3
(g4
g5
(lp3538
g2571
atp3539
Rp3540
(dp3541
g13
VNNP
p3542
sbatp3543
Rp3544
(dp3545
g13
VNP
p3546
sbag3
(g4
g5
(lp3547
g811
atp3548
Rp3549
(dp3550
g13
g815
sbatp3551
Rp3552
(dp3553
g13
g114
sbag3
(g4
g5
(lp3554
g3
(g4
g5
(lp3555
Vlet
p3556
atp3557
Rp3558
(dp3559
g13
g79
sbag3
(g4
g5
(lp3560
g3
(g4
g5
(lp3561
g3
(g4
g5
(lp3562
VAmerica
p3563
atp3564
Rp3565
(dp3566
g13
VNNP
p3567
sbatp3568
Rp3569
(dp3570
g13
VNP
p3571
sbag3
(g4
g5
(lp3572
g3
(g4
g5
(lp3573
Vbe
p3574
atp3575
Rp3576
(dp3577
g13
g32
sbag3
(g4
g5
(lp3578
g3
(g4
g5
(lp3579
VAmerica
p3580
atp3581
Rp3582
(dp3583
g13
VNNP
p3584
sbatp3585
Rp3586
(dp3587
g13
VNP
p3588
sbag3
(g4
g5
(lp3589
g3
(g4
g5
(lp3590
Vagain
p3591
atp3592
Rp3593
(dp3594
g13
VRB
p3595
sbatp3596
Rp3597
(dp3598
g13
VADVP
p3599
sbatp3600
Rp3601
(dp3602
g13
g58
sbatp3603
Rp3604
(dp3605
g13
g692
sbatp3606
Rp3607
(dp3608
g13
g58
sbatp3609
Rp3610
(dp3611
g13
g3384
sbag3
(g4
g5
(lp3612
g3
(g4
g5
(lp3613
g3
(g4
g5
(lp3614
Vthe
p3615
atp3616
Rp3617
(dp3618
g13
g104
sbag3
(g4
g5
(lp3619
Vland
p3620
atp3621
Rp3622
(dp3623
g13
g110
sbatp3624
Rp3625
(dp3626
g13
g114
sbag3
(g4
g5
(lp3627
g3
(g4
g5
(lp3628
g3
(g4
g5
(lp3629
Vthat
p3630
atp3631
Rp3632
(dp3633
g13
VWDT
p3634
sbatp3635
Rp3636
(dp3637
g13
VWHNP
p3638
sbag3
(g4
g5
(lp3639
g3
(g4
g5
(lp3640
g3
(g4
g5
(lp3641
Vnever
p3642
atp3643
Rp3644
(dp3645
g13
VRB
p3646
sbatp3647
Rp3648
(dp3649
g13
VADVP
p3650
sbag3
(g4
g5
(lp3651
g3
(g4
g5
(lp3652
Vhas
p3653
atp3654
Rp3655
(dp3656
g13
g308
sbag3
(g4
g5
(lp3657
Vbeen
p3658
atp3659
Rp3660
(dp3661
g13
g132
sbag3
(g4
g5
(lp3662
g3
(g4
g5
(lp3663
Vyet
p3664
atp3665
Rp3666
(dp3667
g13
VRB
p3668
sbatp3669
Rp3670
(dp3671
g13
VADVP
p3672
sbatp3673
Rp3674
(dp3675
g13
g58
sbatp3676
Rp3677
(dp3678
g13
g154
sbatp3679
Rp3680
(dp3681
g13
g333
sbatp3682
Rp3683
(dp3684
g13
VS+NP
p3685
sbag3
(g4
g5
(lp3686
g3
(g4
g5
(lp3687
Vand
p3688
atp3689
Rp3690
(dp3691
g13
g538
sbag3
(g4
g5
(lp3692
g3
(g4
g5
(lp3693
g3
(g4
g5
(lp3694
g3
(g4
g5
(lp3695
Vyet
p3696
atp3697
Rp3698
(dp3699
g13
VRB
p3700
sbatp3701
Rp3702
(dp3703
g13
VADVP
p3704
sbag3
(g4
g5
(lp3705
g3
(g4
g5
(lp3706
Vmust
p3707
atp3708
Rp3709
(dp3710
g13
VMD
p3711
sbag3
(g4
g5
(lp3712
Vbe
p3713
atp3714
Rp3715
(dp3716
g13
g32
sbag3
(g4
g5
(lp3717
g3
(g4
g5
(lp3718
Vthe
p3719
atp3720
Rp3721
(dp3722
g13
g104
sbag3
(g4
g5
(lp3723
Vland
p3724
atp3725
Rp3726
(dp3727
g13
g110
sbatp3728
Rp3729
(dp3730
g13
g114
sbatp3731
Rp3732
(dp3733
g13
g58
sbatp3734
Rp3735
(dp3736
g13
g692
sbag3
(g4
g5
(lp3737
g3
(g4
g5
(lp3738
Vwhere
p3739
atp3740
Rp3741
(dp3742
g13
VWRB
p3743
sbatp3744
Rp3745
(dp3746
g13
VWHADVP
p3747
sbag3
(g4
g5
(lp3748
g3
(g4
g5
(lp3749
g3
(g4
g5
(lp3750
Vevery
p3751
atp3752
Rp3753
(dp3754
g13
g104
sbag3
(g4
g5
(lp3755
Vman
p3756
atp3757
Rp3758
(dp3759
g13
g110
sbatp3760
Rp3761
(dp3762
g13
g114
sbag3
(g4
g5
(lp3763
g3
(g4
g5
(lp3764
Vis
p3765
atp3766
Rp3767
(dp3768
g13
g308
sbag3
(g4
g5
(lp3769
g3
(g4
g5
(lp3770
Vfree
p3771
atp3772
Rp3773
(dp3774
g13
VJJ
p3775
sbatp3776
Rp3777
(dp3778
g13
VADJP
p3779
sbatp3780
Rp3781
(dp3782
g13
g58
sbag3
(g4
g5
(lp3783
g64
atp3784
Rp3785
(dp3786
g13
g68
sbatp3787
Rp3788
(dp3789
g13
g165
sbatp3790
Rp3791
(dp3792
g13
g333
sbatp3793
Rp3794
(dp3795
g13
g1231
sbag3
(g4
g5
(lp3796
g3
(g4
g5
(lp3797
g3
(g4
g5
(lp3798
Vthe
p3799
atp3800
Rp3801
(dp3802
g13
g104
sbag3
(g4
g5
(lp3803
Vland
p3804
atp3805
Rp3806
(dp3807
g13
g110
sbatp3808
Rp3809
(dp3810
g13
g114
sbag3
(g4
g5
(lp3811
Vthats
p3812
atp3813
Rp3814
(dp3815
g13
g448
sbag3
(g4
g5
(lp3816
Vmine
p3817
atp3818
Rp3819
(dp3820
g13
g448
sbag3
(g4
g5
(lp3821
Vthe
p3822
atp3823
Rp3824
(dp3825
g13
g104
sbag3
(g4
g5
(lp3826
Vpoor
p3827
atp3828
Rp3829
(dp3830
g13
g448
sbag3
(g4
g5
(lp3831
g3
(g4
g5
(lp3832
Vmans
p3833
atp3834
Rp3835
(dp3836
g13
g1049
sbag3
(g4
g5
(lp3837
g811
atp3838
Rp3839
(dp3840
g13
g815
sbag3
(g4
g5
(lp3841
VIndians
p3842
atp3843
Rp3844
(dp3845
g13
VNNPS
p3846
sbag3
(g4
g5
(lp3847
g811
atp3848
Rp3849
(dp3850
g13
g815
sbag3
(g4
g5
(lp3851
VNegros
p3852
atp3853
Rp3854
(dp3855
g13
g1049
sbag3
(g4
g5
(lp3856
g811
atp3857
Rp3858
(dp3859
g13
g815
sbatp3860
Rp3861
(dp3862
g13
VNAC
p3863
sbag3
(g4
g5
(lp3864
VME
p3865
atp3866
Rp3867
(dp3868
g13
g110
sbatp3869
Rp3870
(dp3871
g13
g3162
sbag340
ag340
ag340
ag3
(g4
g5
(lp3872
g3
(g4
g5
(lp3873
g3
(g4
g5
(lp3874
Vmust
p3875
atp3876
Rp3877
(dp3878
g13
g3711
sbag3
(g4
g5
(lp3879
Vbring
p3880
atp3881
Rp3882
(dp3883
g13
g32
sbag3
(g4
g5
(lp3884
g3
(g4
g5
(lp3885
Vback
p3886
atp3887
Rp3888
(dp3889
g13
VRB
p3890
sbatp3891
Rp3892
(dp3893
g13
VADVP
p3894
sbag3
(g4
g5
(lp3895
g3
(g4
g5
(lp3896
Vour
p3897
atp3898
Rp3899
(dp3900
g13
g970
sbag3
(g4
g5
(lp3901
Vmighty
p3902
atp3903
Rp3904
(dp3905
g13
g448
sbag3
(g4
g5
(lp3906
Vdream
p3907
atp3908
Rp3909
(dp3910
g13
g110
sbatp3911
Rp3912
(dp3913
g13
g114
sbag3
(g4
g5
(lp3914
g3
(g4
g5
(lp3915
Vagain
p3916
atp3917
Rp3918
(dp3919
g13
VRB
p3920
sbatp3921
Rp3922
(dp3923
g13
VADVP
p3924
sbatp3925
Rp3926
(dp3927
g13
g58
sbag3
(g4
g5
(lp3928
g64
atp3929
Rp3930
(dp3931
g13
g68
sbatp3932
Rp3933
(dp3934
g13
g165
sbag340
ag3
(g4
g5
(lp3935
g3
(g4
g5
(lp3936
Vsure
p3937
atp3938
Rp3939
(dp3940
g13
g611
sbag3
(g4
g5
(lp3941
g3
(g4
g5
(lp3942
g811
atp3943
Rp3944
(dp3945
g13
g815
sbag3
(g4
g5
(lp3946
Vcall
p3947
atp3948
Rp3949
(dp3950
g13
g32
sbag3
(g4
g5
(lp3951
g3
(g4
g5
(lp3952
g3
(g4
g5
(lp3953
Vme
p3954
atp3955
Rp3956
(dp3957
g13
VPRP
p3958
sbatp3959
Rp3960
(dp3961
g13
VNP
p3962
sbag3
(g4
g5
(lp3963
g3
(g4
g5
(lp3964
Vany
p3965
atp3966
Rp3967
(dp3968
g13
g104
sbag3
(g4
g5
(lp3969
Vugly
p3970
atp3971
Rp3972
(dp3973
g13
g448
sbag3
(g4
g5
(lp3974
Vname
p3975
atp3976
Rp3977
(dp3978
g13
g110
sbatp3979
Rp3980
(dp3981
g13
g114
sbag3
(g4
g5
(lp3982
g3
(g4
g5
(lp3983
Vyou
p3984
atp3985
Rp3986
(dp3987
g13
VPRP
p3988
sbatp3989
Rp3990
(dp3991
g13
VNP
p3992
sbag3
(g4
g5
(lp3993
g3
(g4
g5
(lp3994
Vchoose
p3995
atp3996
Rp3997
(dp3998
g13
VVB
p3999
sbatp4000
Rp4001
(dp4002
g13
VVP
p4003
sbatp4004
Rp4005
(dp4006
g13
g165
sbatp4007
Rp4008
(dp4009
g13
g58
sbatp4010
Rp4011
(dp4012
g13
VVP+VP
p4013
sbag3
(g4
g5
(lp4014
g3
(g4
g5
(lp4015
g3
(g4
g5
(lp4016
g3
(g4
g5
(lp4017
Vthe
p4018
atp4019
Rp4020
(dp4021
g13
g104
sbag3
(g4
g5
(lp4022
Vsteel
p4023
atp4024
Rp4025
(dp4026
g13
g110
sbatp4027
Rp4028
(dp4029
g13
g114
sbag3
(g4
g5
(lp4030
g3
(g4
g5
(lp4031
Vof
p4032
atp4033
Rp4034
(dp4035
g13
g217
sbag3
(g4
g5
(lp4036
g3
(g4
g5
(lp4037
Vfreedom
p4038
atp4039
Rp4040
(dp4041
g13
VNN
p4042
sbatp4043
Rp4044
(dp4045
g13
VNP
p4046
sbatp4047
Rp4048
(dp4049
g13
g235
sbatp4050
Rp4051
(dp4052
g13
g114
sbag3
(g4
g5
(lp4053
g3
(g4
g5
(lp4054
Vdoes
p4055
atp4056
Rp4057
(dp4058
g13
g308
sbag3
(g4
g5
(lp4059
g3
(g4
g5
(lp4060
Vnot
p4061
atp4062
Rp4063
(dp4064
g13
g611
sbag3
(g4
g5
(lp4065
Vstain
p4066
atp4067
Rp4068
(dp4069
g13
g448
sbatp4070
Rp4071
(dp4072
g13
g705
sbatp4073
Rp4074
(dp4075
g13
g58
sbag3
(g4
g5
(lp4076
g64
atp4077
Rp4078
(dp4079
g13
g68
sbatp4080
Rp4081
(dp4082
g13
g165
sbag340
ag340
ag3
(g4
g5
(lp4083
g3
(g4
g5
(lp4084
Vamerica
p4085
atp4086
Rp4087
(dp4088
g13
VLS
p4089
sbag3
(g4
g5
(lp4090
g1454
atp4091
Rp4092
(dp4093
g13
g68
sbatp4094
Rp4095
(dp4096
g13
VLST
p4097
sbag340
ag340
ag340
ag340
ag3
(g4
g5
(lp4098
g3
(g4
g5
(lp4099
Vand
p4100
atp4101
Rp4102
(dp4103
g13
g538
sbag3
(g4
g5
(lp4104
g3
(g4
g5
(lp4105
Vyet
p4106
atp4107
Rp4108
(dp4109
g13
VRB
p4110
sbatp4111
Rp4112
(dp4113
g13
VADVP
p4114
sbag3
(g4
g5
(lp4115
g3
(g4
g5
(lp4116
g1023
atp4117
Rp4118
(dp4119
g13
VPRP
p4120
sbatp4121
Rp4122
(dp4123
g13
VNP
p4124
sbag3
(g4
g5
(lp4125
g3
(g4
g5
(lp4126
Vswear
p4127
atp4128
Rp4129
(dp4130
g13
g32
sbag3
(g4
g5
(lp4131
g3
(g4
g5
(lp4132
Vthis
p4133
atp4134
Rp4135
(dp4136
g13
g104
sbag3
(g4
g5
(lp4137
Voath
p4138
atp4139
Rp4140
(dp4141
g13
g110
sbatp4142
Rp4143
(dp4144
g13
g114
sbatp4145
Rp4146
(dp4147
g13
g58
sbatp4148
Rp4149
(dp4150
g13
g165
sbag3
(g4
g5
(lp4151
g3
(g4
g5
(lp4152
g3
(g4
g5
(lp4153
Vamerica
p4154
atp4155
Rp4156
(dp4157
g13
g32
sbag3
(g4
g5
(lp4158
Vwill
p4159
atp4160
Rp4161
(dp4162
g13
g3711
sbag3
(g4
g5
(lp4163
g3
(g4
g5
(lp4164
Vbe
p4165
atp4166
Rp4167
(dp4168
g13
VVB
p4169
sbatp4170
Rp4171
(dp4172
g13
VVP
p4173
sbatp4174
Rp4175
(dp4176
g13
g58
sbag3
(g4
g5
(lp4177
g1454
atp4178
Rp4179
(dp4180
g13
g68
sbatp4181
Rp4182
(dp4183
g13
g165
sbag340
ag340
ag340
ag3
(g4
g5
(lp4184
g3
(g4
g5
(lp4185
g3
(g4
g5
(lp4186
Vwe
p4187
atp4188
Rp4189
(dp4190
g13
VPRP
p4191
sbatp4192
Rp4193
(dp4194
g13
VNP
p4195
sbag3
(g4
g5
(lp4196
g811
atp4197
Rp4198
(dp4199
g13
g815
sbag3
(g4
g5
(lp4200
g3
(g4
g5
(lp4201
Vthe
p4202
atp4203
Rp4204
(dp4205
g13
g104
sbag3
(g4
g5
(lp4206
Vpeople
p4207
atp4208
Rp4209
(dp4210
g13
g999
sbatp4211
Rp4212
(dp4213
g13
g114
sbag3
(g4
g5
(lp4214
g3
(g4
g5
(lp4215
g811
atp4216
Rp4217
(dp4218
g13
g815
sbag3
(g4
g5
(lp4219
Vmust
p4220
atp4221
Rp4222
(dp4223
g13
g3711
sbag3
(g4
g5
(lp4224
g3
(g4
g5
(lp4225
Vredeem
p4226
atp4227
Rp4228
(dp4229
g13
VVB
p4230
sbatp4231
Rp4232
(dp4233
g13
VVP
p4234
sbatp4235
Rp4236
(dp4237
g13
g58
sbatp4238
Rp4239
(dp4240
g13
g165
sbag3
(g4
g5
(lp4241
g3
(g4
g5
(lp4242
g3
(g4
g5
(lp4243
Vthe
p4244
atp4245
Rp4246
(dp4247
g13
g104
sbag3
(g4
g5
(lp4248
Vland
p4249
atp4250
Rp4251
(dp4252
g13
g110
sbatp4253
Rp4254
(dp4255
g13
g114
sbag3
(g4
g5
(lp4256
g811
atp4257
Rp4258
(dp4259
g13
g815
sbag3
(g4
g5
(lp4260
g3
(g4
g5
(lp4261
Vthe
p4262
atp4263
Rp4264
(dp4265
g13
g104
sbag3
(g4
g5
(lp4266
Vmines
p4267
atp4268
Rp4269
(dp4270
g13
g110
sbatp4271
Rp4272
(dp4273
g13
g114
sbag3
(g4
g5
(lp4274
g811
atp4275
Rp4276
(dp4277
g13
g815
sbag3
(g4
g5
(lp4278
g3
(g4
g5
(lp4279
Vthe
p4280
atp4281
Rp4282
(dp4283
g13
g104
sbag3
(g4
g5
(lp4284
Vplants
p4285
atp4286
Rp4287
(dp4288
g13
g999
sbatp4289
Rp4290
(dp4291
g13
g114
sbag3
(g4
g5
(lp4292
g3
(g4
g5
(lp4293
g811
atp4294
Rp4295
(dp4296
g13
g815
sbag3
(g4
g5
(lp4297
g3
(g4
g5
(lp4298
Vthe
p4299
atp4300
Rp4301
(dp4302
g13
g104
sbag3
(g4
g5
(lp4303
Vrivers
p4304
atp4305
Rp4306
(dp4307
g13
g110
sbatp4308
Rp4309
(dp4310
g13
g114
sbatp4311
Rp4312
(dp4313
g13
g58
sbag3
(g4
g5
(lp4314
g64
atp4315
Rp4316
(dp4317
g13
g68
sbatp4318
Rp4319
(dp4320
g13
g165
sbag3
(g4
g5
(lp4321
g3
(g4
g5
(lp4322
Vthe
p4323
atp4324
Rp4325
(dp4326
g13
g104
sbag3
(g4
g5
(lp4327
Vmountains
p4328
atp4329
Rp4330
(dp4331
g13
g448
sbag3
(g4
g5
(lp4332
Vand
p4333
atp4334
Rp4335
(dp4336
g13
g538
sbag3
(g4
g5
(lp4337
Vthe
p4338
atp4339
Rp4340
(dp4341
g13
g104
sbag3
(g4
g5
(lp4342
Vendless
p4343
atp4344
Rp4345
(dp4346
g13
g448
sbag3
(g4
g5
(lp4347
Vplain
p4348
atp4349
Rp4350
(dp4351
g13
g110
sbatp4352
Rp4353
(dp4354
g13
g3162
sbag3
(g4
g5
(lp4355
g3
(g4
g5
(lp4356
g3
(g4
g5
(lp4357
Vall
p4358
atp4359
Rp4360
(dp4361
g13
g104
sbag3
(g4
g5
(lp4362
g811
atp4363
Rp4364
(dp4365
g13
g815
sbag3
(g4
g5
(lp4366
Vall
p4367
atp4368
Rp4369
(dp4370
g13
g104
sbag3
(g4
g5
(lp4371
Vthe
p4372
atp4373
Rp4374
(dp4375
g13
g104
sbag3
(g4
g5
(lp4376
Vstretch
p4377
atp4378
Rp4379
(dp4380
g13
g110
sbatp4381
Rp4382
(dp4383
g13
g114
sbag3
(g4
g5
(lp4384
g3
(g4
g5
(lp4385
Vof
p4386
atp4387
Rp4388
(dp4389
g13
g217
sbag3
(g4
g5
(lp4390
g3
(g4
g5
(lp4391
Vthese
p4392
atp4393
Rp4394
(dp4395
g13
g104
sbag3
(g4
g5
(lp4396
Vgreat
p4397
atp4398
Rp4399
(dp4400
g13
g448
sbag3
(g4
g5
(lp4401
Vgreen
p4402
atp4403
Rp4404
(dp4405
g13
g448
sbag3
(g4
g5
(lp4406
Vstates
p4407
atp4408
Rp4409
(dp4410
g13
g999
sbatp4411
Rp4412
(dp4413
g13
g114
sbatp4414
Rp4415
(dp4416
g13
g235
sbatp4417
Rp4418
(dp4419
g13
g3467
sbag3
(g4
g5
(lp4420
g3
(g4
g5
(lp4421
Vand
p4422
atp4423
Rp4424
(dp4425
g13
g538
sbag3
(g4
g5
(lp4426
g3
(g4
g5
(lp4427
Vmake
p4428
atp4429
Rp4430
(dp4431
g13
g32
sbag3
(g4
g5
(lp4432
g3
(g4
g5
(lp4433
VAmerica
p4434
atp4435
Rp4436
(dp4437
g13
VNNP
p4438
sbatp4439
Rp4440
(dp4441
g13
VNP
p4442
sbag3
(g4
g5
(lp4443
g3
(g4
g5
(lp4444
Vagain
p4445
atp4446
Rp4447
(dp4448
g13
VRB
p4449
sbatp4450
Rp4451
(dp4452
g13
VADVP
p4453
sbatp4454
Rp4455
(dp4456
g13
g58
sbag3
(g4
g5
(lp4457
g1454
atp4458
Rp4459
(dp4460
g13
g68
sbatp4461
Rp4462
(dp4463
g13
g165
sbag340
asS'lh_poems/Black_Workers.txt'
p4464
(lp4465
g3
(g4
g5
(lp4466
g3
(g4
g5
(lp4467
g3
(g4
g5
(lp4468
g3
(g4
g5
(lp4469
Vthe
p4470
atp4471
Rp4472
(dp4473
g13
g104
sbag3
(g4
g5
(lp4474
Vbees
p4475
atp4476
Rp4477
(dp4478
g13
g110
sbatp4479
Rp4480
(dp4481
g13
g114
sbag3
(g4
g5
(lp4482
g3
(g4
g5
(lp4483
Vwork
p4484
atp4485
Rp4486
(dp4487
g13
VVB
p4488
sbatp4489
Rp4490
(dp4491
g13
VVP
p4492
sbatp4493
Rp4494
(dp4495
g13
g62
sbag3
(g4
g5
(lp4496
g64
atp4497
Rp4498
(dp4499
g13
g68
sbatp4500
Rp4501
(dp4502
g13
g72
sbag3
(g4
g5
(lp4503
g3
(g4
g5
(lp4504
g3
(g4
g5
(lp4505
Vtheir
p4506
atp4507
Rp4508
(dp4509
g13
g970
sbag3
(g4
g5
(lp4510
Vwork
p4511
atp4512
Rp4513
(dp4514
g13
g110
sbatp4515
Rp4516
(dp4517
g13
g114
sbag3
(g4
g5
(lp4518
g3
(g4
g5
(lp4519
Vis
p4520
atp4521
Rp4522
(dp4523
g13
g308
sbag3
(g4
g5
(lp4524
Vtaken
p4525
atp4526
Rp4527
(dp4528
g13
g132
sbag3
(g4
g5
(lp4529
g3
(g4
g5
(lp4530
Vfrom
p4531
atp4532
Rp4533
(dp4534
g13
g217
sbag3
(g4
g5
(lp4535
g3
(g4
g5
(lp4536
Vthem
p4537
atp4538
Rp4539
(dp4540
g13
VPRP
p4541
sbatp4542
Rp4543
(dp4544
g13
VNP
p4545
sbatp4546
Rp4547
(dp4548
g13
g235
sbatp4549
Rp4550
(dp4551
g13
g58
sbag3
(g4
g5
(lp4552
g64
atp4553
Rp4554
(dp4555
g13
g68
sbatp4556
Rp4557
(dp4558
g13
g165
sbag340
ag3
(g4
g5
(lp4559
g3
(g4
g5
(lp4560
Vbut
p4561
atp4562
Rp4563
(dp4564
g13
g538
sbag3
(g4
g5
(lp4565
g3
(g4
g5
(lp4566
Vit
p4567
atp4568
Rp4569
(dp4570
g13
VPRP
p4571
sbatp4572
Rp4573
(dp4574
g13
VNP
p4575
sbag3
(g4
g5
(lp4576
g3
(g4
g5
(lp4577
Vwont
p4578
atp4579
Rp4580
(dp4581
g13
g448
sbag3
(g4
g5
(lp4582
Vlast
p4583
atp4584
Rp4585
(dp4586
g13
g448
sbatp4587
Rp4588
(dp4589
g13
g705
sbatp4590
Rp4591
(dp4592
g13
g165
sbag3
(g4
g5
(lp4593
g3
(g4
g5
(lp4594
Vforever
p4595
atp4596
Rp4597
(dp4598
g13
g4089
sbag3
(g4
g5
(lp4599
g64
atp4600
Rp4601
(dp4602
g13
g68
sbatp4603
Rp4604
(dp4605
g13
g4097
sbag340
asS'lh_poems/Militant.txt'
p4606
(lp4607
g340
ag3
(g4
g5
(lp4608
g3
(g4
g5
(lp4609
g3
(g4
g5
(lp4610
Veat
p4611
atp4612
Rp4613
(dp4614
g13
g32
sbag3
(g4
g5
(lp4615
g3
(g4
g5
(lp4616
Vquietly
p4617
atp4618
Rp4619
(dp4620
g13
VRB
p4621
sbatp4622
Rp4623
(dp4624
g13
VADVP
p4625
sbag3
(g4
g5
(lp4626
g3
(g4
g5
(lp4627
Vthe
p4628
atp4629
Rp4630
(dp4631
g13
g104
sbag3
(g4
g5
(lp4632
Vbread
p4633
atp4634
Rp4635
(dp4636
g13
g110
sbatp4637
Rp4638
(dp4639
g13
g114
sbag3
(g4
g5
(lp4640
g3
(g4
g5
(lp4641
Vof
p4642
atp4643
Rp4644
(dp4645
g13
g217
sbag3
(g4
g5
(lp4646
g3
(g4
g5
(lp4647
Vshame
p4648
atp4649
Rp4650
(dp4651
g13
VNN
p4652
sbatp4653
Rp4654
(dp4655
g13
VNP
p4656
sbatp4657
Rp4658
(dp4659
g13
g235
sbatp4660
Rp4661
(dp4662
g13
g58
sbag3
(g4
g5
(lp4663
g64
atp4664
Rp4665
(dp4666
g13
g68
sbatp4667
Rp4668
(dp4669
g13
g165
sbag3
(g4
g5
(lp4670
g3
(g4
g5
(lp4671
g3
(g4
g5
(lp4672
g1023
atp4673
Rp4674
(dp4675
g13
VPRP
p4676
sbatp4677
Rp4678
(dp4679
g13
VNP
p4680
sbag3
(g4
g5
(lp4681
g3
(g4
g5
(lp4682
Vcan
p4683
atp4684
Rp4685
(dp4686
g13
g110
sbag3
(g4
g5
(lp4687
Vnot
p4688
atp4689
Rp4690
(dp4691
g13
g611
sbatp4692
Rp4693
(dp4694
g13
g2472
sbag3
(g4
g5
(lp4695
g811
atp4696
Rp4697
(dp4698
g13
g815
sbatp4699
Rp4700
(dp4701
g13
g796
sbag3
(g4
g5
(lp4702
g3
(g4
g5
(lp4703
Vwithout
p4704
atp4705
Rp4706
(dp4707
g13
g217
sbag3
(g4
g5
(lp4708
g3
(g4
g5
(lp4709
g3
(g4
g5
(lp4710
Vcomplaining
p4711
atp4712
Rp4713
(dp4714
g13
g251
sbag3
(g4
g5
(lp4715
Vloud
p4716
atp4717
Rp4718
(dp4719
g13
g32
sbag3
(g4
g5
(lp4720
g3
(g4
g5
(lp4721
Vand
p4722
atp4723
Rp4724
(dp4725
g13
g538
sbag3
(g4
g5
(lp4726
Vlong
p4727
atp4728
Rp4729
(dp4730
g13
g448
sbatp4731
Rp4732
(dp4733
g13
g705
sbatp4734
Rp4735
(dp4736
g13
g58
sbag3
(g4
g5
(lp4737
g64
atp4738
Rp4739
(dp4740
g13
g68
sbatp4741
Rp4742
(dp4743
g13
g165
sbatp4744
Rp4745
(dp4746
g13
g631
sbag340
ag3
(g4
g5
(lp4747
g3
(g4
g5
(lp4748
Vand
p4749
atp4750
Rp4751
(dp4752
g13
g538
sbag3
(g4
g5
(lp4753
g3
(g4
g5
(lp4754
Vfeeling
p4755
atp4756
Rp4757
(dp4758
g13
g251
sbag3
(g4
g5
(lp4759
g3
(g4
g5
(lp4760
Vto
p4761
atp4762
Rp4763
(dp4764
g13
g139
sbag3
(g4
g5
(lp4765
g3
(g4
g5
(lp4766
Vmy
p4767
atp4768
Rp4769
(dp4770
g13
g970
sbag3
(g4
g5
(lp4771
Vvery
p4772
atp4773
Rp4774
(dp4775
g13
g448
sbag3
(g4
g5
(lp4776
Vsoul
p4777
atp4778
Rp4779
(dp4780
g13
g110
sbatp4781
Rp4782
(dp4783
g13
g114
sbatp4784
Rp4785
(dp4786
g13
g235
sbatp4787
Rp4788
(dp4789
g13
g154
sbatp4790
Rp4791
(dp4792
g13
g1231
sbag3
(g4
g5
(lp4793
g3
(g4
g5
(lp4794
g3
(g4
g5
(lp4795
Vits
p4796
atp4797
Rp4798
(dp4799
g13
g970
sbag3
(g4
g5
(lp4800
Vwrong
p4801
atp4802
Rp4803
(dp4804
g13
g448
sbatp4805
Rp4806
(dp4807
g13
g114
sbag3
(g4
g5
(lp4808
g64
atp4809
Rp4810
(dp4811
g13
g68
sbatp4812
Rp4813
(dp4814
g13
g2073
sbag3
(g4
g5
(lp4815
g3
(g4
g5
(lp4816
Vfor
p4817
atp4818
Rp4819
(dp4820
g13
g217
sbag3
(g4
g5
(lp4821
g3
(g4
g5
(lp4822
Vhonest
p4823
atp4824
Rp4825
(dp4826
g13
g448
sbag3
(g4
g5
(lp4827
Vwork
p4828
atp4829
Rp4830
(dp4831
g13
g110
sbatp4832
Rp4833
(dp4834
g13
g114
sbatp4835
Rp4836
(dp4837
g13
VPP+PP
p4838
sbag340
ag3
(g4
g5
(lp4839
g3
(g4
g5
(lp4840
Vfor
p4841
atp4842
Rp4843
(dp4844
g13
g217
sbag3
(g4
g5
(lp4845
g3
(g4
g5
(lp4846
Vhonest
p4847
atp4848
Rp4849
(dp4850
g13
g448
sbag3
(g4
g5
(lp4851
Vdreams
p4852
atp4853
Rp4854
(dp4855
g13
g110
sbatp4856
Rp4857
(dp4858
g13
g114
sbatp4859
Rp4860
(dp4861
g13
g4838
sbag340
ag3
(g4
g5
(lp4862
g3
(g4
g5
(lp4863
Vand
p4864
atp4865
Rp4866
(dp4867
g13
g538
sbag3
(g4
g5
(lp4868
g3
(g4
g5
(lp4869
Vso
p4870
atp4871
Rp4872
(dp4873
g13
g217
sbag3
(g4
g5
(lp4874
g3
(g4
g5
(lp4875
g3
(g4
g5
(lp4876
Vmy
p4877
atp4878
Rp4879
(dp4880
g13
g970
sbag3
(g4
g5
(lp4881
Vfist
p4882
atp4883
Rp4884
(dp4885
g13
g110
sbatp4886
Rp4887
(dp4888
g13
g114
sbag3
(g4
g5
(lp4889
g3
(g4
g5
(lp4890
Vis
p4891
atp4892
Rp4893
(dp4894
g13
g308
sbag3
(g4
g5
(lp4895
g3
(g4
g5
(lp4896
Vclenched
p4897
atp4898
Rp4899
(dp4900
g13
VVBN
p4901
sbatp4902
Rp4903
(dp4904
g13
VVP
p4905
sbatp4906
Rp4907
(dp4908
g13
g58
sbatp4909
Rp4910
(dp4911
g13
g165
sbatp4912
Rp4913
(dp4914
g13
g333
sbatp4915
Rp4916
(dp4917
g13
g1231
sbag340
ag3
(g4
g5
(lp4918
g3
(g4
g5
(lp4919
g3
(g4
g5
(lp4920
Vto
p4921
atp4922
Rp4923
(dp4924
g13
g139
sbag3
(g4
g5
(lp4925
g3
(g4
g5
(lp4926
Vstrike
p4927
atp4928
Rp4929
(dp4930
g13
VVB
p4931
sbatp4932
Rp4933
(dp4934
g13
VVP
p4935
sbatp4936
Rp4937
(dp4938
g13
g154
sbag3
(g4
g5
(lp4939
g3
(g4
g5
(lp4940
Vyour
p4941
atp4942
Rp4943
(dp4944
g13
g970
sbag3
(g4
g5
(lp4945
Vface
p4946
atp4947
Rp4948
(dp4949
g13
g110
sbatp4950
Rp4951
(dp4952
g13
g114
sbag3
(g4
g5
(lp4953
g64
atp4954
Rp4955
(dp4956
g13
g68
sbatp4957
Rp4958
(dp4959
g13
g2073
sbag340
asS'lh_poems/Go_Slow.txt'
p4960
(lp4961
g3
(g4
g5
(lp4962
g3
(g4
g5
(lp4963
Vgo
p4964
atp4965
Rp4966
(dp4967
g13
g32
sbag3
(g4
g5
(lp4968
Vslow
p4969
atp4970
Rp4971
(dp4972
g13
g32
sbag3
(g4
g5
(lp4973
g811
atp4974
Rp4975
(dp4976
g13
g815
sbag3
(g4
g5
(lp4977
g3
(g4
g5
(lp4978
g3
(g4
g5
(lp4979
Vthey
p4980
atp4981
Rp4982
(dp4983
g13
VPRP
p4984
sbatp4985
Rp4986
(dp4987
g13
VNP
p4988
sbag3
(g4
g5
(lp4989
g3
(g4
g5
(lp4990
Vsay-
p4991
atp4992
Rp4993
(dp4994
g13
VNNS
p4995
sbatp4996
Rp4997
(dp4998
g13
VNP
p4999
sbatp5000
Rp5001
(dp5002
g13
g114
sbatp5003
Rp5004
(dp5005
g13
g2649
sbag340
ag340
ag340
ag340
ag340
ag340
ag340
ag340
ag340
ag340
ag340
ag340
ag340
ag340
ag340
ag340
ag340
ag340
ag340
ag340
ag340
asS'gb_poems/TO_THE_DIASPORA.txt'
p5006
(lp5007
g3
(g4
g5
(lp5008
g3
(g4
g5
(lp5009
g3
(g4
g5
(lp5010
Vyou
p5011
atp5012
Rp5013
(dp5014
g13
VPRP
p5015
sbatp5016
Rp5017
(dp5018
g13
VNP
p5019
sbag3
(g4
g5
(lp5020
g3
(g4
g5
(lp5021
Vdid
p5022
atp5023
Rp5024
(dp5025
g13
g79
sbag3
(g4
g5
(lp5026
Vnot
p5027
atp5028
Rp5029
(dp5030
g13
g611
sbag3
(g4
g5
(lp5031
Vknow
p5032
atp5033
Rp5034
(dp5035
g13
g14
sbag3
(g4
g5
(lp5036
g3
(g4
g5
(lp5037
g3
(g4
g5
(lp5038
Vyou
p5039
atp5040
Rp5041
(dp5042
g13
VPRP
p5043
sbatp5044
Rp5045
(dp5046
g13
VNP
p5047
sbag3
(g4
g5
(lp5048
g3
(g4
g5
(lp5049
Vwere
p5050
atp5051
Rp5052
(dp5053
g13
g79
sbag3
(g4
g5
(lp5054
g3
(g4
g5
(lp5055
VAfrika
p5056
atp5057
Rp5058
(dp5059
g13
VNNP
p5060
sbatp5061
Rp5062
(dp5063
g13
VNP
p5064
sbatp5065
Rp5066
(dp5067
g13
g58
sbatp5068
Rp5069
(dp5070
g13
g692
sbatp5071
Rp5072
(dp5073
g13
g58
sbatp5074
Rp5075
(dp5076
g13
g692
sbag340
ag340
ag340
ag340
ag340
ag340
ag340
ag340
ag340
ag340
ag340
ag340
ag340
ag340
ag340
ag340
ag340
ag340
ag340
ag340
ag340
ag340
ag340
ag340
ag340
ag340
ag340
ag340
asS'lh_poems/50-50.txt'
p5077
(lp5078
g3
(g4
g5
(lp5079
g3
(g4
g5
(lp5080
g3
(g4
g5
(lp5081
Vim
p5082
atp5083
Rp5084
(dp5085
g13
VRB
p5086
sbatp5087
Rp5088
(dp5089
g13
VADVP
p5090
sbag3
(g4
g5
(lp5091
g3
(g4
g5
(lp5092
Vall
p5093
atp5094
Rp5095
(dp5096
g13
VRB
p5097
sbatp5098
Rp5099
(dp5100
g13
VADVP
p5101
sbag3
(g4
g5
(lp5102
g3
(g4
g5
(lp5103
Valone
p5104
atp5105
Rp5106
(dp5107
g13
VRB
p5108
sbatp5109
Rp5110
(dp5111
g13
VADVP
p5112
sbag3
(g4
g5
(lp5113
Vin
p5114
atp5115
Rp5116
(dp5117
g13
g217
sbag3
(g4
g5
(lp5118
g3
(g4
g5
(lp5119
g3
(g4
g5
(lp5120
Vthis
p5121
atp5122
Rp5123
(dp5124
g13
g104
sbag3
(g4
g5
(lp5125
Vworld
p5126
atp5127
Rp5128
(dp5129
g13
g110
sbatp5130
Rp5131
(dp5132
g13
g114
sbag3
(g4
g5
(lp5133
g811
atp5134
Rp5135
(dp5136
g13
g815
sbag3
(g4
g5
(lp5137
g3
(g4
g5
(lp5138
Vshe
p5139
atp5140
Rp5141
(dp5142
g13
VPRP
p5143
sbatp5144
Rp5145
(dp5146
g13
VNP
p5147
sbag3
(g4
g5
(lp5148
g3
(g4
g5
(lp5149
Vsaid,
p5150
atp5151
Rp5152
(dp5153
g13
VVBP
p5154
sbatp5155
Rp5156
(dp5157
g13
VVP
p5158
sbatp5159
Rp5160
(dp5161
g13
g165
sbatp5162
Rp5163
(dp5164
g13
VFRAG+SBAR
p5165
sbag340
ag340
ag340
ag340
ag340
ag340
ag340
ag340
ag340
ag340
ag340
ag340
ag340
ag340
ag340
ag340
ag340
asS'gb_poems/my_dreams,_my_works,_must_wait_till_after_hell.txt'
p5166
(lp5167
g3
(g4
g5
(lp5168
g3
(g4
g5
(lp5169
g3
(g4
g5
(lp5170
g3
(g4
g5
(lp5171
g1023
atp5172
Rp5173
(dp5174
g13
VPRP
p5175
sbatp5176
Rp5177
(dp5178
g13
VNP
p5179
sbag3
(g4
g5
(lp5180
g3
(g4
g5
(lp5181
Vhold
p5182
atp5183
Rp5184
(dp5185
g13
g32
sbag3
(g4
g5
(lp5186
g3
(g4
g5
(lp5187
Vmy
p5188
atp5189
Rp5190
(dp5191
g13
g970
sbag3
(g4
g5
(lp5192
Vhoney
p5193
atp5194
Rp5195
(dp5196
g13
g110
sbatp5197
Rp5198
(dp5199
g13
g114
sbatp5200
Rp5201
(dp5202
g13
g58
sbatp5203
Rp5204
(dp5205
g13
g165
sbag3
(g4
g5
(lp5206
g3
(g4
g5
(lp5207
Vand
p5208
atp5209
Rp5210
(dp5211
g13
g538
sbag3
(g4
g5
(lp5212
g3
(g4
g5
(lp5213
g1023
atp5214
Rp5215
(dp5216
g13
VPRP
p5217
sbatp5218
Rp5219
(dp5220
g13
VNP
p5221
sbag3
(g4
g5
(lp5222
g3
(g4
g5
(lp5223
Vstore
p5224
atp5225
Rp5226
(dp5227
g13
g32
sbag3
(g4
g5
(lp5228
g3
(g4
g5
(lp5229
Vmy
p5230
atp5231
Rp5232
(dp5233
g13
g970
sbag3
(g4
g5
(lp5234
Vbread
p5235
atp5236
Rp5237
(dp5238
g13
g110
sbatp5239
Rp5240
(dp5241
g13
g114
sbatp5242
Rp5243
(dp5244
g13
g58
sbatp5245
Rp5246
(dp5247
g13
g165
sbatp5248
Rp5249
(dp5250
g13
g1093
sbag3
(g4
g5
(lp5251
g3
(g4
g5
(lp5252
Vin
p5253
atp5254
Rp5255
(dp5256
g13
g217
sbag3
(g4
g5
(lp5257
g3
(g4
g5
(lp5258
g3
(g4
g5
(lp5259
Vlittle
p5260
atp5261
Rp5262
(dp5263
g13
g448
sbag3
(g4
g5
(lp5264
Vjars
p5265
atp5266
Rp5267
(dp5268
g13
g110
sbatp5269
Rp5270
(dp5271
g13
g114
sbag3
(g4
g5
(lp5272
Vand
p5273
atp5274
Rp5275
(dp5276
g13
g538
sbag3
(g4
g5
(lp5277
g3
(g4
g5
(lp5278
Vcabinets
p5279
atp5280
Rp5281
(dp5282
g13
g32
sbag3
(g4
g5
(lp5283
g3
(g4
g5
(lp5284
Vof
p5285
atp5286
Rp5287
(dp5288
g13
g217
sbag3
(g4
g5
(lp5289
g3
(g4
g5
(lp5290
Vmy
p5291
atp5292
Rp5293
(dp5294
g13
g970
sbag3
(g4
g5
(lp5295
Vwill
p5296
atp5297
Rp5298
(dp5299
g13
g110
sbatp5300
Rp5301
(dp5302
g13
g114
sbatp5303
Rp5304
(dp5305
g13
g235
sbatp5306
Rp5307
(dp5308
g13
g58
sbag3
(g4
g5
(lp5309
g64
atp5310
Rp5311
(dp5312
g13
g68
sbatp5313
Rp5314
(dp5315
g13
g165
sbatp5316
Rp5317
(dp5318
g13
g631
sbag3
(g4
g5
(lp5319
g3
(g4
g5
(lp5320
g3
(g4
g5
(lp5321
g1023
atp5322
Rp5323
(dp5324
g13
VPRP
p5325
sbatp5326
Rp5327
(dp5328
g13
VNP
p5329
sbag3
(g4
g5
(lp5330
g3
(g4
g5
(lp5331
Vlabel
p5332
atp5333
Rp5334
(dp5335
g13
g32
sbag3
(g4
g5
(lp5336
g3
(g4
g5
(lp5337
g3
(g4
g5
(lp5338
Vclearly
p5339
atp5340
Rp5341
(dp5342
g13
VRB
p5343
sbatp5344
Rp5345
(dp5346
g13
VADVP
p5347
sbag3
(g4
g5
(lp5348
g811
atp5349
Rp5350
(dp5351
g13
g815
sbag3
(g4
g5
(lp5352
Vand
p5353
atp5354
Rp5355
(dp5356
g13
g538
sbag3
(g4
g5
(lp5357
g3
(g4
g5
(lp5358
Veach
p5359
atp5360
Rp5361
(dp5362
g13
g104
sbag3
(g4
g5
(lp5363
Vlatch
p5364
atp5365
Rp5366
(dp5367
g13
g110
sbatp5368
Rp5369
(dp5370
g13
g114
sbag3
(g4
g5
(lp5371
Vand
p5372
atp5373
Rp5374
(dp5375
g13
g538
sbag3
(g4
g5
(lp5376
Vlid
p5377
atp5378
Rp5379
(dp5380
g13
g448
sbatp5381
Rp5382
(dp5383
g13
g1231
sbatp5384
Rp5385
(dp5386
g13
g58
sbatp5387
Rp5388
(dp5389
g13
g692
sbag3
(g4
g5
(lp5390
g3
(g4
g5
(lp5391
g3
(g4
g5
(lp5392
g3
(g4
g5
(lp5393
g1023
atp5394
Rp5395
(dp5396
g13
VPRP
p5397
sbatp5398
Rp5399
(dp5400
g13
VNP
p5401
sbag3
(g4
g5
(lp5402
g3
(g4
g5
(lp5403
Vbid
p5404
atp5405
Rp5406
(dp5407
g13
g79
sbag3
(g4
g5
(lp5408
g3
(g4
g5
(lp5409
g3
(g4
g5
(lp5410
g811
atp5411
Rp5412
(dp5413
g13
g815
sbag3
(g4
g5
(lp5414
VBe
p5415
atp5416
Rp5417
(dp5418
g13
g1049
sbag3
(g4
g5
(lp5419
Vfirm
p5420
atp5421
Rp5422
(dp5423
g13
g110
sbag3
(g4
g5
(lp5424
Vtill
p5425
atp5426
Rp5427
(dp5428
g13
g110
sbatp5429
Rp5430
(dp5431
g13
g114
sbag3
(g4
g5
(lp5432
g3
(g4
g5
(lp5433
g1023
atp5434
Rp5435
(dp5436
g13
VPRP
p5437
sbatp5438
Rp5439
(dp5440
g13
VNP
p5441
sbag3
(g4
g5
(lp5442
g3
(g4
g5
(lp5443
Vreturn
p5444
atp5445
Rp5446
(dp5447
g13
g32
sbag3
(g4
g5
(lp5448
g3
(g4
g5
(lp5449
Vfrom
p5450
atp5451
Rp5452
(dp5453
g13
g217
sbag3
(g4
g5
(lp5454
g3
(g4
g5
(lp5455
Vhell
p5456
atp5457
Rp5458
(dp5459
g13
VNN
p5460
sbatp5461
Rp5462
(dp5463
g13
VNP
p5464
sbatp5465
Rp5466
(dp5467
g13
g235
sbatp5468
Rp5469
(dp5470
g13
g58
sbatp5471
Rp5472
(dp5473
g13
g692
sbatp5474
Rp5475
(dp5476
g13
g58
sbatp5477
Rp5478
(dp5479
g13
g62
sbag3
(g4
g5
(lp5480
g64
atp5481
Rp5482
(dp5483
g13
g68
sbatp5484
Rp5485
(dp5486
g13
g72
sbag3
(g4
g5
(lp5487
g3
(g4
g5
(lp5488
g3
(g4
g5
(lp5489
g3
(g4
g5
(lp5490
g1023
atp5491
Rp5492
(dp5493
g13
VPRP
p5494
sbatp5495
Rp5496
(dp5497
g13
VNP
p5498
sbag3
(g4
g5
(lp5499
g3
(g4
g5
(lp5500
Vam
p5501
atp5502
Rp5503
(dp5504
g13
g32
sbag3
(g4
g5
(lp5505
Vvery
p5506
atp5507
Rp5508
(dp5509
g13
g611
sbag3
(g4
g5
(lp5510
Vhungry.
p5511
atp5512
Rp5513
(dp5514
g13
g32
sbag3
(g4
g5
(lp5515
g3
(g4
g5
(lp5516
g1023
atp5517
Rp5518
(dp5519
g13
VPRP
p5520
sbatp5521
Rp5522
(dp5523
g13
VNP
p5524
sbatp5525
Rp5526
(dp5527
g13
g58
sbatp5528
Rp5529
(dp5530
g13
g165
sbag3
(g4
g5
(lp5531
g3
(g4
g5
(lp5532
Vam
p5533
atp5534
Rp5535
(dp5536
g13
g448
sbag3
(g4
g5
(lp5537
Vincomplete
p5538
atp5539
Rp5540
(dp5541
g13
g110
sbatp5542
Rp5543
(dp5544
g13
g114
sbag3
(g4
g5
(lp5545
g64
atp5546
Rp5547
(dp5548
g13
g68
sbatp5549
Rp5550
(dp5551
g13
g2073
sbag340
ag3
(g4
g5
(lp5552
g3
(g4
g5
(lp5553
g3
(g4
g5
(lp5554
g3
(g4
g5
(lp5555
Vthe
p5556
atp5557
Rp5558
(dp5559
g13
g104
sbag3
(g4
g5
(lp5560
Vpuny
p5561
atp5562
Rp5563
(dp5564
g13
g448
sbag3
(g4
g5
(lp5565
Vlight.
p5566
atp5567
Rp5568
(dp5569
g13
g110
sbatp5570
Rp5571
(dp5572
g13
g114
sbag3
(g4
g5
(lp5573
g3
(g4
g5
(lp5574
g1023
atp5575
Rp5576
(dp5577
g13
VPRP
p5578
sbatp5579
Rp5580
(dp5581
g13
VNP
p5582
sbag3
(g4
g5
(lp5583
g3
(g4
g5
(lp5584
Vkeep
p5585
atp5586
Rp5587
(dp5588
g13
g32
sbag3
(g4
g5
(lp5589
g3
(g4
g5
(lp5590
Vmy
p5591
atp5592
Rp5593
(dp5594
g13
g970
sbag3
(g4
g5
(lp5595
Veyes
p5596
atp5597
Rp5598
(dp5599
g13
g999
sbatp5600
Rp5601
(dp5602
g13
g114
sbatp5603
Rp5604
(dp5605
g13
g58
sbatp5606
Rp5607
(dp5608
g13
g165
sbag3
(g4
g5
(lp5609
g3
(g4
g5
(lp5610
g3
(g4
g5
(lp5611
Vpointed
p5612
atp5613
Rp5614
(dp5615
g13
g132
sbag3
(g4
g5
(lp5616
g3
(g4
g5
(lp5617
Vin
p5618
atp5619
Rp5620
(dp5621
g13
VIN
p5622
sbatp5623
Rp5624
(dp5625
g13
VPP
p5626
sbatp5627
Rp5628
(dp5629
g13
g58
sbag3
(g4
g5
(lp5630
V;
p5631
atp5632
Rp5633
(dp5634
g13
V:
p5635
sbatp5636
Rp5637
(dp5638
g13
g165
sbatp5639
Rp5640
(dp5641
g13
g1093
sbag3
(g4
g5
(lp5642
g3
(g4
g5
(lp5643
Vhoping
p5644
atp5645
Rp5646
(dp5647
g13
g251
sbag3
(g4
g5
(lp5648
g3
(g4
g5
(lp5649
Vthat
p5650
atp5651
Rp5652
(dp5653
g13
g217
sbag3
(g4
g5
(lp5654
g3
(g4
g5
(lp5655
g811
atp5656
Rp5657
(dp5658
g13
g815
sbag3
(g4
g5
(lp5659
g3
(g4
g5
(lp5660
g3
(g4
g5
(lp5661
Vwhen
p5662
atp5663
Rp5664
(dp5665
g13
VWRB
p5666
sbatp5667
Rp5668
(dp5669
g13
VWHADVP
p5670
sbag3
(g4
g5
(lp5671
g3
(g4
g5
(lp5672
g3
(g4
g5
(lp5673
Vthe
p5674
atp5675
Rp5676
(dp5677
g13
g104
sbag3
(g4
g5
(lp5678
Vdevil
p5679
atp5680
Rp5681
(dp5682
g13
g448
sbag3
(g4
g5
(lp5683
Vdays
p5684
atp5685
Rp5686
(dp5687
g13
g999
sbatp5688
Rp5689
(dp5690
g13
g114
sbag3
(g4
g5
(lp5691
g3
(g4
g5
(lp5692
Vof
p5693
atp5694
Rp5695
(dp5696
g13
g217
sbag3
(g4
g5
(lp5697
g3
(g4
g5
(lp5698
Vmy
p5699
atp5700
Rp5701
(dp5702
g13
g970
sbag3
(g4
g5
(lp5703
Vhurt
p5704
atp5705
Rp5706
(dp5707
g13
g110
sbatp5708
Rp5709
(dp5710
g13
g114
sbatp5711
Rp5712
(dp5713
g13
g235
sbatp5714
Rp5715
(dp5716
g13
g154
sbatp5717
Rp5718
(dp5719
g13
g333
sbatp5720
Rp5721
(dp5722
g13
g114
sbatp5723
Rp5724
(dp5725
g13
g235
sbatp5726
Rp5727
(dp5728
g13
g154
sbag3
(g4
g5
(lp5729
g3
(g4
g5
(lp5730
Vdrag
p5731
atp5732
Rp5733
(dp5734
g13
g32
sbag3
(g4
g5
(lp5735
g3
(g4
g5
(lp5736
Vout
p5737
atp5738
Rp5739
(dp5740
g13
VRP
p5741
sbatp5742
Rp5743
(dp5744
g13
VPRT
p5745
sbag3
(g4
g5
(lp5746
g3
(g4
g5
(lp5747
Vto
p5748
atp5749
Rp5750
(dp5751
g13
g139
sbag3
(g4
g5
(lp5752
g3
(g4
g5
(lp5753
Vtheir
p5754
atp5755
Rp5756
(dp5757
g13
g970
sbag3
(g4
g5
(lp5758
Vlast
p5759
atp5760
Rp5761
(dp5762
g13
g448
sbag3
(g4
g5
(lp5763
Vdregs
p5764
atp5765
Rp5766
(dp5767
g13
g110
sbag3
(g4
g5
(lp5768
Vand
p5769
atp5770
Rp5771
(dp5772
g13
g538
sbag3
(g4
g5
(lp5773
g1023
atp5774
Rp5775
(dp5776
g13
VPRP
p5777
sbag3
(g4
g5
(lp5778
Vresume
p5779
atp5780
Rp5781
(dp5782
g13
g110
sbatp5783
Rp5784
(dp5785
g13
g114
sbatp5786
Rp5787
(dp5788
g13
g235
sbatp5789
Rp5790
(dp5791
g13
VNP+S+VP
p5792
sbag3
(g4
g5
(lp5793
g3
(g4
g5
(lp5794
g3
(g4
g5
(lp5795
Von
p5796
atp5797
Rp5798
(dp5799
g13
g217
sbag3
(g4
g5
(lp5800
g3
(g4
g5
(lp5801
Vsuch
p5802
atp5803
Rp5804
(dp5805
g13
g448
sbag3
(g4
g5
(lp5806
Vlegs
p5807
atp5808
Rp5809
(dp5810
g13
g110
sbatp5811
Rp5812
(dp5813
g13
g114
sbatp5814
Rp5815
(dp5816
g13
g235
sbag3
(g4
g5
(lp5817
Vas
p5818
atp5819
Rp5820
(dp5821
g13
g611
sbag3
(g4
g5
(lp5822
g3
(g4
g5
(lp5823
Vare
p5824
atp5825
Rp5826
(dp5827
g13
g14
sbag3
(g4
g5
(lp5828
Vleft
p5829
atp5830
Rp5831
(dp5832
g13
g79
sbag3
(g4
g5
(lp5833
g3
(g4
g5
(lp5834
g3
(g4
g5
(lp5835
Vme
p5836
atp5837
Rp5838
(dp5839
g13
VPRP
p5840
sbatp5841
Rp5842
(dp5843
g13
VNP
p5844
sbag3
(g4
g5
(lp5845
g3
(g4
g5
(lp5846
g811
atp5847
Rp5848
(dp5849
g13
g815
sbag3
(g4
g5
(lp5850
g3
(g4
g5
(lp5851
Vin
p5852
atp5853
Rp5854
(dp5855
g13
g217
sbag3
(g4
g5
(lp5856
g3
(g4
g5
(lp5857
Vsuch
p5858
atp5859
Rp5860
(dp5861
g13
g448
sbag3
(g4
g5
(lp5862
Vheart
p5863
atp5864
Rp5865
(dp5866
g13
g110
sbatp5867
Rp5868
(dp5869
g13
g114
sbatp5870
Rp5871
(dp5872
g13
g235
sbatp5873
Rp5874
(dp5875
g13
g58
sbatp5876
Rp5877
(dp5878
g13
g692
sbatp5879
Rp5880
(dp5881
g13
g58
sbatp5882
Rp5883
(dp5884
g13
g4013
sbag340
ag3
(g4
g5
(lp5885
g3
(g4
g5
(lp5886
g3
(g4
g5
(lp5887
Vmy
p5888
atp5889
Rp5890
(dp5891
g13
g970
sbag3
(g4
g5
(lp5892
Vtaste
p5893
atp5894
Rp5895
(dp5896
g13
g110
sbatp5897
Rp5898
(dp5899
g13
g114
sbag3
(g4
g5
(lp5900
g3
(g4
g5
(lp5901
Vwill
p5902
atp5903
Rp5904
(dp5905
g13
g3711
sbag3
(g4
g5
(lp5906
Vnot
p5907
atp5908
Rp5909
(dp5910
g13
g611
sbag3
(g4
g5
(lp5911
Vhave
p5912
atp5913
Rp5914
(dp5915
g13
g14
sbag3
(g4
g5
(lp5916
Vturned
p5917
atp5918
Rp5919
(dp5920
g13
g79
sbag3
(g4
g5
(lp5921
g3
(g4
g5
(lp5922
Vinsensitive
p5923
atp5924
Rp5925
(dp5926
g13
VJJ
p5927
sbatp5928
Rp5929
(dp5930
g13
VADJP
p5931
sbatp5932
Rp5933
(dp5934
g13
g58
sbatp5935
Rp5936
(dp5937
g13
g3384
sbag340
ag340
asS'gb_poems/the_independent_man.txt'
p5938
(lp5939
g3
(g4
g5
(lp5940
g3
(g4
g5
(lp5941
g3
(g4
g5
(lp5942
Vnow
p5943
atp5944
Rp5945
(dp5946
g13
VRB
p5947
sbatp5948
Rp5949
(dp5950
g13
VADVP
p5951
sbag3
(g4
g5
(lp5952
g3
(g4
g5
(lp5953
Vwho
p5954
atp5955
Rp5956
(dp5957
g13
VWP
p5958
sbatp5959
Rp5960
(dp5961
g13
VWHNP
p5962
sbag3
(g4
g5
(lp5963
g3
(g4
g5
(lp5964
Vcould
p5965
atp5966
Rp5967
(dp5968
g13
g3711
sbag3
(g4
g5
(lp5969
g3
(g4
g5
(lp5970
Vtake
p5971
atp5972
Rp5973
(dp5974
g13
g32
sbag3
(g4
g5
(lp5975
g3
(g4
g5
(lp5976
g3
(g4
g5
(lp5977
Vyou
p5978
atp5979
Rp5980
(dp5981
g13
VPRP
p5982
sbatp5983
Rp5984
(dp5985
g13
VNP
p5986
sbag3
(g4
g5
(lp5987
g3
(g4
g5
(lp5988
g3
(g4
g5
(lp5989
Voff
p5990
atp5991
Rp5992
(dp5993
g13
VRP
p5994
sbatp5995
Rp5996
(dp5997
g13
VPRT
p5998
sbag3
(g4
g5
(lp5999
g3
(g4
g5
(lp6000
Vto
p6001
atp6002
Rp6003
(dp6004
g13
g139
sbag3
(g4
g5
(lp6005
g3
(g4
g5
(lp6006
Vtiny
p6007
atp6008
Rp6009
(dp6010
g13
g448
sbag3
(g4
g5
(lp6011
Vlife
p6012
atp6013
Rp6014
(dp6015
g13
g110
sbatp6016
Rp6017
(dp6018
g13
g114
sbatp6019
Rp6020
(dp6021
g13
g235
sbatp6022
Rp6023
(dp6024
g13
g58
sbatp6025
Rp6026
(dp6027
g13
g692
sbatp6028
Rp6029
(dp6030
g13
g58
sbatp6031
Rp6032
(dp6033
g13
g154
sbatp6034
Rp6035
(dp6036
g13
g333
sbag3
(g4
g5
(lp6037
g3
(g4
g5
(lp6038
g3
(g4
g5
(lp6039
Vin
p6040
atp6041
Rp6042
(dp6043
g13
g217
sbag3
(g4
g5
(lp6044
g3
(g4
g5
(lp6045
Vone
p6046
atp6047
Rp6048
(dp6049
g13
g605
sbag3
(g4
g5
(lp6050
Vroom
p6051
atp6052
Rp6053
(dp6054
g13
g999
sbatp6055
Rp6056
(dp6057
g13
g114
sbatp6058
Rp6059
(dp6060
g13
g235
sbag3
(g4
g5
(lp6061
Vor
p6062
atp6063
Rp6064
(dp6065
g13
g538
sbag3
(g4
g5
(lp6066
g3
(g4
g5
(lp6067
Vin
p6068
atp6069
Rp6070
(dp6071
g13
g217
sbag3
(g4
g5
(lp6072
g3
(g4
g5
(lp6073
Vtwo
p6074
atp6075
Rp6076
(dp6077
g13
g605
sbag3
(g4
g5
(lp6078
Vrooms
p6079
atp6080
Rp6081
(dp6082
g13
g999
sbatp6083
Rp6084
(dp6085
g13
g114
sbatp6086
Rp6087
(dp6088
g13
g235
sbag3
(g4
g5
(lp6089
Vor
p6090
atp6091
Rp6092
(dp6093
g13
g538
sbag3
(g4
g5
(lp6094
g3
(g4
g5
(lp6095
Vin
p6096
atp6097
Rp6098
(dp6099
g13
g217
sbag3
(g4
g5
(lp6100
g3
(g4
g5
(lp6101
Vthree
p6102
atp6103
Rp6104
(dp6105
g13
VCD
p6106
sbatp6107
Rp6108
(dp6109
g13
VNP
p6110
sbatp6111
Rp6112
(dp6113
g13
g235
sbatp6114
Rp6115
(dp6116
g13
g1231
sbag3
(g4
g5
(lp6117
g3
(g4
g5
(lp6118
Vand
p6119
atp6120
Rp6121
(dp6122
g13
g538
sbag3
(g4
g5
(lp6123
g3
(g4
g5
(lp6124
Vcork
p6125
atp6126
Rp6127
(dp6128
g13
g448
sbag3
(g4
g5
(lp6129
g3
(g4
g5
(lp6130
g3
(g4
g5
(lp6131
Vyou
p6132
atp6133
Rp6134
(dp6135
g13
VPRP
p6136
sbatp6137
Rp6138
(dp6139
g13
VNP
p6140
sbag3
(g4
g5
(lp6141
g3
(g4
g5
(lp6142
g3
(g4
g5
(lp6143
Vsmartly
p6144
atp6145
Rp6146
(dp6147
g13
VRB
p6148
sbatp6149
Rp6150
(dp6151
g13
VADVP
p6152
sbag3
(g4
g5
(lp6153
g811
atp6154
Rp6155
(dp6156
g13
g815
sbag3
(g4
g5
(lp6157
g3
(g4
g5
(lp6158
Vlike
p6159
atp6160
Rp6161
(dp6162
g13
g217
sbag3
(g4
g5
(lp6163
g3
(g4
g5
(lp6164
g3
(g4
g5
(lp6165
Vthe
p6166
atp6167
Rp6168
(dp6169
g13
g104
sbag3
(g4
g5
(lp6170
Vflask
p6171
atp6172
Rp6173
(dp6174
g13
g110
sbatp6175
Rp6176
(dp6177
g13
g114
sbag3
(g4
g5
(lp6178
g3
(g4
g5
(lp6179
Vof
p6180
atp6181
Rp6182
(dp6183
g13
g217
sbag3
(g4
g5
(lp6184
g3
(g4
g5
(lp6185
Vwine
p6186
atp6187
Rp6188
(dp6189
g13
VNN
p6190
sbatp6191
Rp6192
(dp6193
g13
VNP
p6194
sbatp6195
Rp6196
(dp6197
g13
g235
sbatp6198
Rp6199
(dp6200
g13
g114
sbatp6201
Rp6202
(dp6203
g13
g235
sbatp6204
Rp6205
(dp6206
g13
g58
sbatp6207
Rp6208
(dp6209
g13
g692
sbatp6210
Rp6211
(dp6212
g13
g705
sbatp6213
Rp6214
(dp6215
g13
g2829
sbag3
(g4
g5
(lp6216
g3
(g4
g5
(lp6217
g3
(g4
g5
(lp6218
g3
(g4
g5
(lp6219
Vyou
p6220
atp6221
Rp6222
(dp6223
g13
VPRP
p6224
sbatp6225
Rp6226
(dp6227
g13
VNP
p6228
sbag3
(g4
g5
(lp6229
g3
(g4
g5
(lp6230
Vare
p6231
atp6232
Rp6233
(dp6234
g13
VVBP
p6235
sbatp6236
Rp6237
(dp6238
g13
VVP
p6239
sbag3
(g4
g5
(lp6240
g901
atp6241
Rp6242
(dp6243
g13
g68
sbatp6244
Rp6245
(dp6246
g13
g165
sbag3
(g4
g5
(lp6247
g3
(g4
g5
(lp6248
g3
(g4
g5
(lp6249
VNot
p6250
atp6251
Rp6252
(dp6253
g13
g1049
sbag3
(g4
g5
(lp6254
Vany
p6255
atp6256
Rp6257
(dp6258
g13
g104
sbag3
(g4
g5
(lp6259
Vwoman.
p6260
atp6261
Rp6262
(dp6263
g13
g110
sbatp6264
Rp6265
(dp6266
g13
g114
sbag3
(g4
g5
(lp6267
VNot
p6268
atp6269
Rp6270
(dp6271
g13
g1049
sbag3
(g4
g5
(lp6272
g255
atp6273
Rp6274
(dp6275
g13
g104
sbag3
(g4
g5
(lp6276
Vwife
p6277
atp6278
Rp6279
(dp6280
g13
g110
sbatp6281
Rp6282
(dp6283
g13
g114
sbag3
(g4
g5
(lp6284
g64
atp6285
Rp6286
(dp6287
g13
g68
sbatp6288
Rp6289
(dp6290
g13
g2073
sbag3
(g4
g5
(lp6291
g3
(g4
g5
(lp6292
Vyoud
p6293
atp6294
Rp6295
(dp6296
g13
g32
sbag3
(g4
g5
(lp6297
Vlet
p6298
atp6299
Rp6300
(dp6301
g13
g32
sbag3
(g4
g5
(lp6302
g3
(g4
g5
(lp6303
g3
(g4
g5
(lp6304
Vher
p6305
atp6306
Rp6307
(dp6308
g13
g970
sbag3
(g4
g5
(lp6309
Vtwirl
p6310
atp6311
Rp6312
(dp6313
g13
g110
sbatp6314
Rp6315
(dp6316
g13
g114
sbag3
(g4
g5
(lp6317
g3
(g4
g5
(lp6318
g3
(g4
g5
(lp6319
Vyou
p6320
atp6321
Rp6322
(dp6323
g13
VPRP
p6324
sbatp6325
Rp6326
(dp6327
g13
VNP
p6328
sbag3
(g4
g5
(lp6329
g3
(g4
g5
(lp6330
g811
atp6331
Rp6332
(dp6333
g13
g815
sbag3
(g4
g5
(lp6334
Vgive
p6335
atp6336
Rp6337
(dp6338
g13
g32
sbag3
(g4
g5
(lp6339
g3
(g4
g5
(lp6340
Vher
p6341
atp6342
Rp6343
(dp6344
g13
g970
sbag3
(g4
g5
(lp6345
g255
atp6346
Rp6347
(dp6348
g13
g104
sbag3
(g4
g5
(lp6349
Vgood
p6350
atp6351
Rp6352
(dp6353
g13
g448
sbag3
(g4
g5
(lp6354
Vglee
p6355
atp6356
Rp6357
(dp6358
g13
g110
sbatp6359
Rp6360
(dp6361
g13
g114
sbatp6362
Rp6363
(dp6364
g13
g58
sbatp6365
Rp6366
(dp6367
g13
g692
sbatp6368
Rp6369
(dp6370
g13
g114
sbatp6371
Rp6372
(dp6373
g13
g5792
sbag3
(g4
g5
(lp6374
g3
(g4
g5
(lp6375
g3
(g4
g5
(lp6376
Vshowing
p6377
atp6378
Rp6379
(dp6380
g13
g251
sbag3
(g4
g5
(lp6381
g3
(g4
g5
(lp6382
Vyour
p6383
atp6384
Rp6385
(dp6386
g13
g970
sbag3
(g4
g5
(lp6387
Vleaping
p6388
atp6389
Rp6390
(dp6391
g13
g251
sbag3
(g4
g5
(lp6392
Vruby
p6393
atp6394
Rp6395
(dp6396
g13
g110
sbag3
(g4
g5
(lp6397
g3
(g4
g5
(lp6398
Vto
p6399
atp6400
Rp6401
(dp6402
g13
g139
sbag3
(g4
g5
(lp6403
g3
(g4
g5
(lp6404
g255
atp6405
Rp6406
(dp6407
g13
g104
sbag3
(g4
g5
(lp6408
Vfriend
p6409
atp6410
Rp6411
(dp6412
g13
g110
sbatp6413
Rp6414
(dp6415
g13
g114
sbatp6416
Rp6417
(dp6418
g13
g235
sbatp6419
Rp6420
(dp6421
g13
g114
sbatp6422
Rp6423
(dp6424
g13
g58
sbag3
(g4
g5
(lp6425
g64
atp6426
Rp6427
(dp6428
g13
g68
sbatp6429
Rp6430
(dp6431
g13
g165
sbag3
(g4
g5
(lp6432
g3
(g4
g5
(lp6433
g3
(g4
g5
(lp6434
Vthough
p6435
atp6436
Rp6437
(dp6438
g13
g217
sbag3
(g4
g5
(lp6439
g3
(g4
g5
(lp6440
Vtwirling
p6441
atp6442
Rp6443
(dp6444
g13
g251
sbag3
(g4
g5
(lp6445
Vwould
p6446
atp6447
Rp6448
(dp6449
g13
g3711
sbag3
(g4
g5
(lp6450
g3
(g4
g5
(lp6451
Vbe
p6452
atp6453
Rp6454
(dp6455
g13
g32
sbag3
(g4
g5
(lp6456
g3
(g4
g5
(lp6457
Vmeek.
p6458
atp6459
Rp6460
(dp6461
g13
g1049
sbag3
(g4
g5
(lp6462
VSince
p6463
atp6464
Rp6465
(dp6466
g13
g1049
sbatp6467
Rp6468
(dp6469
g13
g114
sbatp6470
Rp6471
(dp6472
g13
g58
sbatp6473
Rp6474
(dp6475
g13
g154
sbatp6476
Rp6477
(dp6478
g13
g235
sbag3
(g4
g5
(lp6479
g3
(g4
g5
(lp6480
Vnot
p6481
atp6482
Rp6483
(dp6484
g13
g611
sbag3
(g4
g5
(lp6485
g3
(g4
g5
(lp6486
g255
atp6487
Rp6488
(dp6489
g13
g104
sbag3
(g4
g5
(lp6490
Vcork
p6491
atp6492
Rp6493
(dp6494
g13
g110
sbatp6495
Rp6496
(dp6497
g13
g114
sbatp6498
Rp6499
(dp6500
g13
g2472
sbatp6501
Rp6502
(dp6503
g13
g1374
sbag3
(g4
g5
(lp6504
g3
(g4
g5
(lp6505
Vcould
p6506
atp6507
Rp6508
(dp6509
g13
g3711
sbag3
(g4
g5
(lp6510
g3
(g4
g5
(lp6511
Vyou
p6512
atp6513
Rp6514
(dp6515
g13
VPRP
p6516
sbatp6517
Rp6518
(dp6519
g13
VNP
p6520
sbag3
(g4
g5
(lp6521
g3
(g4
g5
(lp6522
Vallow
p6523
atp6524
Rp6525
(dp6526
g13
g32
sbag3
(g4
g5
(lp6527
g811
atp6528
Rp6529
(dp6530
g13
g815
sbag3
(g4
g5
(lp6531
g3
(g4
g5
(lp6532
Vfor
p6533
atp6534
Rp6535
(dp6536
g13
g217
sbag3
(g4
g5
(lp6537
g3
(g4
g5
(lp6538
g3
(g4
g5
(lp6539
Vbeing
p6540
atp6541
Rp6542
(dp6543
g13
g251
sbag3
(g4
g5
(lp6544
Vmade
p6545
atp6546
Rp6547
(dp6548
g13
g79
sbag3
(g4
g5
(lp6549
g3
(g4
g5
(lp6550
Vso
p6551
atp6552
Rp6553
(dp6554
g13
g611
sbag3
(g4
g5
(lp6555
Vfree
p6556
atp6557
Rp6558
(dp6559
g13
g448
sbatp6560
Rp6561
(dp6562
g13
g705
sbatp6563
Rp6564
(dp6565
g13
g58
sbag3
(g4
g5
(lp6566
g64
atp6567
Rp6568
(dp6569
g13
g68
sbatp6570
Rp6571
(dp6572
g13
g165
sbatp6573
Rp6574
(dp6575
g13
g333
sbatp6576
Rp6577
(dp6578
g13
g58
sbatp6579
Rp6580
(dp6581
g13
VSBARQ+SQ
p6582
sbag340
ag3
(g4
g5
(lp6583
g3
(g4
g5
(lp6584
g3
(g4
g5
(lp6585
VA
p6586
atp6587
Rp6588
(dp6589
g13
g104
sbag3
(g4
g5
(lp6590
Vwoman
p6591
atp6592
Rp6593
(dp6594
g13
g110
sbatp6595
Rp6596
(dp6597
g13
g114
sbag3
(g4
g5
(lp6598
g3
(g4
g5
(lp6599
Vwould
p6600
atp6601
Rp6602
(dp6603
g13
g3711
sbag3
(g4
g5
(lp6604
Vbe
p6605
atp6606
Rp6607
(dp6608
g13
g32
sbag3
(g4
g5
(lp6609
Vwise
p6610
atp6611
Rp6612
(dp6613
g13
g32
sbag3
(g4
g5
(lp6614
g3
(g4
g5
(lp6615
Vto
p6616
atp6617
Rp6618
(dp6619
g13
g139
sbag3
(g4
g5
(lp6620
g3
(g4
g5
(lp6621
Vthink
p6622
atp6623
Rp6624
(dp6625
g13
g14
sbag3
(g4
g5
(lp6626
g3
(g4
g5
(lp6627
Vit
p6628
atp6629
Rp6630
(dp6631
g13
VPRP
p6632
sbatp6633
Rp6634
(dp6635
g13
VNP
p6636
sbag3
(g4
g5
(lp6637
g3
(g4
g5
(lp6638
Vwell
p6639
atp6640
Rp6641
(dp6642
g13
VRB
p6643
sbatp6644
Rp6645
(dp6646
g13
VADVP
p6647
sbatp6648
Rp6649
(dp6650
g13
g58
sbatp6651
Rp6652
(dp6653
g13
g154
sbatp6654
Rp6655
(dp6656
g13
g58
sbatp6657
Rp6658
(dp6659
g13
g3384
sbag3
(g4
g5
(lp6660
g3
(g4
g5
(lp6661
Vif
p6662
atp6663
Rp6664
(dp6665
g13
g217
sbag3
(g4
g5
(lp6666
g3
(g4
g5
(lp6667
g3
(g4
g5
(lp6668
Vonce
p6669
atp6670
Rp6671
(dp6672
g13
VRB
p6673
sbatp6674
Rp6675
(dp6676
g13
VADVP
p6677
sbag3
(g4
g5
(lp6678
g3
(g4
g5
(lp6679
g255
atp6680
Rp6681
(dp6682
g13
g104
sbag3
(g4
g5
(lp6683
Vweek
p6684
atp6685
Rp6686
(dp6687
g13
g110
sbatp6688
Rp6689
(dp6690
g13
g114
sbag3
(g4
g5
(lp6691
g3
(g4
g5
(lp6692
Vyou
p6693
atp6694
Rp6695
(dp6696
g13
VPRP
p6697
sbatp6698
Rp6699
(dp6700
g13
VNP
p6701
sbag3
(g4
g5
(lp6702
g3
(g4
g5
(lp6703
Vonly
p6704
atp6705
Rp6706
(dp6707
g13
g611
sbag3
(g4
g5
(lp6708
Vrang
p6709
atp6710
Rp6711
(dp6712
g13
g32
sbag3
(g4
g5
(lp6713
g3
(g4
g5
(lp6714
Vthe
p6715
atp6716
Rp6717
(dp6718
g13
g104
sbag3
(g4
g5
(lp6719
Vbell
p6720
atp6721
Rp6722
(dp6723
g13
g110
sbatp6724
Rp6725
(dp6726
g13
g114
sbatp6727
Rp6728
(dp6729
g13
g58
sbag3
(g4
g5
(lp6730
g64
atp6731
Rp6732
(dp6733
g13
g68
sbatp6734
Rp6735
(dp6736
g13
g165
sbatp6737
Rp6738
(dp6739
g13
g631
sbag340
asS'gb_poems/The_Bean_Eaters.txt'
p6740
(lp6741
g3
(g4
g5
(lp6742
g3
(g4
g5
(lp6743
g3
(g4
g5
(lp6744
Vthey
p6745
atp6746
Rp6747
(dp6748
g13
VPRP
p6749
sbatp6750
Rp6751
(dp6752
g13
VNP
p6753
sbag3
(g4
g5
(lp6754
g3
(g4
g5
(lp6755
Veat
p6756
atp6757
Rp6758
(dp6759
g13
g32
sbag3
(g4
g5
(lp6760
Vbeans
p6761
atp6762
Rp6763
(dp6764
g13
g32
sbag3
(g4
g5
(lp6765
g3
(g4
g5
(lp6766
Vmostly
p6767
atp6768
Rp6769
(dp6770
g13
VRB
p6771
sbatp6772
Rp6773
(dp6774
g13
VADVP
p6775
sbag3
(g4
g5
(lp6776
g3
(g4
g5
(lp6777
g811
atp6778
Rp6779
(dp6780
g13
g815
sbag3
(g4
g5
(lp6781
Vthis
p6782
atp6783
Rp6784
(dp6785
g13
g104
sbag3
(g4
g5
(lp6786
Vold
p6787
atp6788
Rp6789
(dp6790
g13
g448
sbag3
(g4
g5
(lp6791
Vyellow
p6792
atp6793
Rp6794
(dp6795
g13
g448
sbag3
(g4
g5
(lp6796
Vpair,
p6797
atp6798
Rp6799
(dp6800
g13
g110
sbatp6801
Rp6802
(dp6803
g13
g114
sbatp6804
Rp6805
(dp6806
g13
g58
sbatp6807
Rp6808
(dp6809
g13
g692
sbag340
ag340
ag340
ag340
ag340
ag340
ag340
ag340
ag340
ag340
ag340
ag340
ag340
ag340
ag340
asS'lh_poems/Open_Letter_to_the_South.txt'
p6810
(lp6811
g3
(g4
g5
(lp6812
g3
(g4
g5
(lp6813
g3
(g4
g5
(lp6814
Vwhite
p6815
atp6816
Rp6817
(dp6818
g13
g448
sbag3
(g4
g5
(lp6819
Vworkers
p6820
atp6821
Rp6822
(dp6823
g13
g999
sbatp6824
Rp6825
(dp6826
g13
g114
sbag3
(g4
g5
(lp6827
g3
(g4
g5
(lp6828
Vof
p6829
atp6830
Rp6831
(dp6832
g13
g217
sbag3
(g4
g5
(lp6833
g3
(g4
g5
(lp6834
Vthe
p6835
atp6836
Rp6837
(dp6838
g13
g104
sbag3
(g4
g5
(lp6839
VSouth
p6840
atp6841
Rp6842
(dp6843
g13
g1049
sbatp6844
Rp6845
(dp6846
g13
g114
sbatp6847
Rp6848
(dp6849
g13
g235
sbatp6850
Rp6851
(dp6852
g13
g3467
sbag340
ag340
ag340
ag340
ag340
ag340
ag340
ag340
ag340
ag3
(g4
g5
(lp6853
g3
(g4
g5
(lp6854
VGREETINGS
p6855
atp6856
Rp6857
(dp6858
g13
g4089
sbag3
(g4
g5
(lp6859
g1454
atp6860
Rp6861
(dp6862
g13
g68
sbatp6863
Rp6864
(dp6865
g13
g4097
sbag340
ag340
ag340
ag340
ag3
(g4
g5
(lp6866
g3
(g4
g5
(lp6867
Vand
p6868
atp6869
Rp6870
(dp6871
g13
g538
sbag3
(g4
g5
(lp6872
g3
(g4
g5
(lp6873
Vthe
p6874
atp6875
Rp6876
(dp6877
g13
g104
sbag3
(g4
g5
(lp6878
Vmines
p6879
atp6880
Rp6881
(dp6882
g13
g110
sbatp6883
Rp6884
(dp6885
g13
g114
sbag3
(g4
g5
(lp6886
Vand
p6887
atp6888
Rp6889
(dp6890
g13
g538
sbag3
(g4
g5
(lp6891
g3
(g4
g5
(lp6892
Vthe
p6893
atp6894
Rp6895
(dp6896
g13
g104
sbag3
(g4
g5
(lp6897
Vfactories
p6898
atp6899
Rp6900
(dp6901
g13
g110
sbatp6902
Rp6903
(dp6904
g13
g114
sbag3
(g4
g5
(lp6905
Vand
p6906
atp6907
Rp6908
(dp6909
g13
g538
sbag3
(g4
g5
(lp6910
g3
(g4
g5
(lp6911
Vthe
p6912
atp6913
Rp6914
(dp6915
g13
g104
sbag3
(g4
g5
(lp6916
Voffice
p6917
atp6918
Rp6919
(dp6920
g13
g110
sbag3
(g4
g5
(lp6921
Vtowers
p6922
atp6923
Rp6924
(dp6925
g13
g110
sbatp6926
Rp6927
(dp6928
g13
g114
sbatp6929
Rp6930
(dp6931
g13
g3685
sbag3
(g4
g5
(lp6932
g3
(g4
g5
(lp6933
g3
(g4
g5
(lp6934
Vat
p6935
atp6936
Rp6937
(dp6938
g13
g217
sbag3
(g4
g5
(lp6939
g3
(g4
g5
(lp6940
g3
(g4
g5
(lp6941
VHarlan
p6942
atp6943
Rp6944
(dp6945
g13
g1049
sbag3
(g4
g5
(lp6946
g811
atp6947
Rp6948
(dp6949
g13
g815
sbag3
(g4
g5
(lp6950
VRichmond
p6951
atp6952
Rp6953
(dp6954
g13
g1049
sbag3
(g4
g5
(lp6955
g811
atp6956
Rp6957
(dp6958
g13
g815
sbag3
(g4
g5
(lp6959
VGastonia
p6960
atp6961
Rp6962
(dp6963
g13
g1049
sbag3
(g4
g5
(lp6964
g811
atp6965
Rp6966
(dp6967
g13
g815
sbag3
(g4
g5
(lp6968
VAtlanta
p6969
atp6970
Rp6971
(dp6972
g13
g1049
sbag3
(g4
g5
(lp6973
g811
atp6974
Rp6975
(dp6976
g13
g815
sbatp6977
Rp6978
(dp6979
g13
g3863
sbag3
(g4
g5
(lp6980
VNew
p6981
atp6982
Rp6983
(dp6984
g13
g1049
sbag3
(g4
g5
(lp6985
VOrleans
p6986
atp6987
Rp6988
(dp6989
g13
g1049
sbatp6990
Rp6991
(dp6992
g13
g114
sbatp6993
Rp6994
(dp6995
g13
g235
sbag3
(g4
g5
(lp6996
g5631
atp6997
Rp6998
(dp6999
g13
g5635
sbatp7000
Rp7001
(dp7002
g13
g796
sbag3
(g4
g5
(lp7003
g3
(g4
g5
(lp7004
g3
(g4
g5
(lp7005
Vthat
p7006
atp7007
Rp7008
(dp7009
g13
g217
sbag3
(g4
g5
(lp7010
g3
(g4
g5
(lp7011
g3
(g4
g5
(lp7012
Vthe
p7013
atp7014
Rp7015
(dp7016
g13
g104
sbag3
(g4
g5
(lp7017
Vplants
p7018
atp7019
Rp7020
(dp7021
g13
g999
sbatp7022
Rp7023
(dp7024
g13
g114
sbag3
(g4
g5
(lp7025
Vand
p7026
atp7027
Rp7028
(dp7029
g13
g538
sbag3
(g4
g5
(lp7030
Vthe
p7031
atp7032
Rp7033
(dp7034
g13
g104
sbag3
(g4
g5
(lp7035
Vroads
p7036
atp7037
Rp7038
(dp7039
g13
g110
sbag3
(g4
g5
(lp7040
Vand
p7041
atp7042
Rp7043
(dp7044
g13
g538
sbag3
(g4
g5
(lp7045
Vthe
p7046
atp7047
Rp7048
(dp7049
g13
g104
sbag3
(g4
g5
(lp7050
Vtools
p7051
atp7052
Rp7053
(dp7054
g13
g110
sbatp7055
Rp7056
(dp7057
g13
g114
sbatp7058
Rp7059
(dp7060
g13
g235
sbag3
(g4
g5
(lp7061
g3
(g4
g5
(lp7062
Vof
p7063
atp7064
Rp7065
(dp7066
g13
g217
sbag3
(g4
g5
(lp7067
g3
(g4
g5
(lp7068
Vpower
p7069
atp7070
Rp7071
(dp7072
g13
VNN
p7073
sbatp7074
Rp7075
(dp7076
g13
VNP
p7077
sbatp7078
Rp7079
(dp7080
g13
g235
sbatp7081
Rp7082
(dp7083
g13
g2753
sbag340
ag340
ag340
ag3
(g4
g5
(lp7084
g3
(g4
g5
(lp7085
g3
(g4
g5
(lp7086
Vseparate
p7087
atp7088
Rp7089
(dp7090
g13
g448
sbag3
(g4
g5
(lp7091
g3
(g4
g5
(lp7092
Vas
p7093
atp7094
Rp7095
(dp7096
g13
g217
sbag3
(g4
g5
(lp7097
g3
(g4
g5
(lp7098
Vthe
p7099
atp7100
Rp7101
(dp7102
g13
g104
sbag3
(g4
g5
(lp7103
Vfingers
p7104
atp7105
Rp7106
(dp7107
g13
g110
sbatp7108
Rp7109
(dp7110
g13
g114
sbatp7111
Rp7112
(dp7113
g13
g235
sbatp7114
Rp7115
(dp7116
g13
g705
sbag3
(g4
g5
(lp7117
g64
atp7118
Rp7119
(dp7120
g13
g68
sbatp7121
Rp7122
(dp7123
g13
g713
sbag340
ag340
ag3
(g4
g5
(lp7124
g3
(g4
g5
(lp7125
Vone
p7126
atp7127
Rp7128
(dp7129
g13
g605
sbag3
(g4
g5
(lp7130
Vsingle
p7131
atp7132
Rp7133
(dp7134
g13
g448
sbag3
(g4
g5
(lp7135
Vhand
p7136
atp7137
Rp7138
(dp7139
g13
g110
sbatp7140
Rp7141
(dp7142
g13
g3162
sbag3
(g4
g5
(lp7143
g3
(g4
g5
(lp7144
g3
(g4
g5
(lp7145
Vthat
p7146
atp7147
Rp7148
(dp7149
g13
VWDT
p7150
sbatp7151
Rp7152
(dp7153
g13
VWHNP
p7154
sbag3
(g4
g5
(lp7155
g3
(g4
g5
(lp7156
Vcan
p7157
atp7158
Rp7159
(dp7160
g13
g3711
sbag3
(g4
g5
(lp7161
g3
(g4
g5
(lp7162
Vunited
p7163
atp7164
Rp7165
(dp7166
g13
g611
sbag3
(g4
g5
(lp7167
g3
(g4
g5
(lp7168
Vrise
p7169
atp7170
Rp7171
(dp7172
g13
VVB
p7173
sbatp7174
Rp7175
(dp7176
g13
VVP
p7177
sbatp7178
Rp7179
(dp7180
g13
g58
sbatp7181
Rp7182
(dp7183
g13
g154
sbatp7184
Rp7185
(dp7186
g13
g333
sbag340
ag3
(g4
g5
(lp7187
g3
(g4
g5
(lp7188
Vto
p7189
atp7190
Rp7191
(dp7192
g13
g139
sbag3
(g4
g5
(lp7193
g3
(g4
g5
(lp7194
Vkill
p7195
atp7196
Rp7197
(dp7198
g13
g32
sbag3
(g4
g5
(lp7199
g3
(g4
g5
(lp7200
g3
(g4
g5
(lp7201
Vthe
p7202
atp7203
Rp7204
(dp7205
g13
g104
sbag3
(g4
g5
(lp7206
Vlies
p7207
atp7208
Rp7209
(dp7210
g13
g110
sbatp7211
Rp7212
(dp7213
g13
g114
sbag3
(g4
g5
(lp7214
g3
(g4
g5
(lp7215
Vof
p7216
atp7217
Rp7218
(dp7219
g13
g217
sbag3
(g4
g5
(lp7220
g3
(g4
g5
(lp7221
Vcolor
p7222
atp7223
Rp7224
(dp7225
g13
VNN
p7226
sbatp7227
Rp7228
(dp7229
g13
VNP
p7230
sbatp7231
Rp7232
(dp7233
g13
g235
sbatp7234
Rp7235
(dp7236
g13
g114
sbatp7237
Rp7238
(dp7239
g13
g58
sbatp7240
Rp7241
(dp7242
g13
g2896
sbag340
ag3
(g4
g5
(lp7243
g3
(g4
g5
(lp7244
Vand
p7245
atp7246
Rp7247
(dp7248
g13
g538
sbag3
(g4
g5
(lp7249
g3
(g4
g5
(lp7250
Vdrive
p7251
atp7252
Rp7253
(dp7254
g13
g32
sbag3
(g4
g5
(lp7255
g3
(g4
g5
(lp7256
Vus
p7257
atp7258
Rp7259
(dp7260
g13
VPRP
p7261
sbatp7262
Rp7263
(dp7264
g13
VNP
p7265
sbag3
(g4
g5
(lp7266
g3
(g4
g5
(lp7267
Vto
p7268
atp7269
Rp7270
(dp7271
g13
g139
sbag3
(g4
g5
(lp7272
g3
(g4
g5
(lp7273
Vthe
p7274
atp7275
Rp7276
(dp7277
g13
g104
sbag3
(g4
g5
(lp7278
Vtime-clock
p7279
atp7280
Rp7281
(dp7282
g13
g110
sbatp7283
Rp7284
(dp7285
g13
g114
sbatp7286
Rp7287
(dp7288
g13
g235
sbatp7289
Rp7290
(dp7291
g13
g58
sbag3
(g4
g5
(lp7292
Vand
p7293
atp7294
Rp7295
(dp7296
g13
g538
sbag3
(g4
g5
(lp7297
g3
(g4
g5
(lp7298
Vthe
p7299
atp7300
Rp7301
(dp7302
g13
g104
sbag3
(g4
g5
(lp7303
Vplow
p7304
atp7305
Rp7306
(dp7307
g13
g110
sbatp7308
Rp7309
(dp7310
g13
g114
sbatp7311
Rp7312
(dp7313
g13
g1231
sbag340
ag340
ag340
ag3
(g4
g5
(lp7314
g3
(g4
g5
(lp7315
g3
(g4
g5
(lp7316
Vanother
p7317
atp7318
Rp7319
(dp7320
g13
g104
sbag3
(g4
g5
(lp7321
Vwhite
p7322
atp7323
Rp7324
(dp7325
g13
g110
sbatp7326
Rp7327
(dp7328
g13
g114
sbag3
(g4
g5
(lp7329
g3
(g4
g5
(lp7330
Vof
p7331
atp7332
Rp7333
(dp7334
g13
g217
sbag3
(g4
g5
(lp7335
g3
(g4
g5
(lp7336
g3
(g4
g5
(lp7337
Vface
p7338
atp7339
Rp7340
(dp7341
g13
VVBP
p7342
sbatp7343
Rp7344
(dp7345
g13
VVP
p7346
sbag3
(g4
g5
(lp7347
g64
atp7348
Rp7349
(dp7350
g13
g68
sbatp7351
Rp7352
(dp7353
g13
g165
sbatp7354
Rp7355
(dp7356
g13
g333
sbatp7357
Rp7358
(dp7359
g13
g3685
sbag340
ag340
ag340
ag340
ag340
ag3
(g4
g5
(lp7360
g3
(g4
g5
(lp7361
g3
(g4
g5
(lp7362
Vuntil
p7363
atp7364
Rp7365
(dp7366
g13
g217
sbag3
(g4
g5
(lp7367
g3
(g4
g5
(lp7368
Vthe
p7369
atp7370
Rp7371
(dp7372
g13
g104
sbag3
(g4
g5
(lp7373
Vfuture
p7374
atp7375
Rp7376
(dp7377
g13
g110
sbatp7378
Rp7379
(dp7380
g13
g114
sbatp7381
Rp7382
(dp7383
g13
g235
sbag3
(g4
g5
(lp7384
g3
(g4
g5
(lp7385
Vburns
p7386
atp7387
Rp7388
(dp7389
g13
g448
sbag3
(g4
g5
(lp7390
Vout
p7391
atp7392
Rp7393
(dp7394
g13
VRP
p7395
sbatp7396
Rp7397
(dp7398
g13
g2472
sbatp7399
Rp7400
(dp7401
g13
g1374
sbag3
(g4
g5
(lp7402
g3
(g4
g5
(lp7403
Vevery
p7404
atp7405
Rp7406
(dp7407
g13
g104
sbag3
(g4
g5
(lp7408
Vpast
p7409
atp7410
Rp7411
(dp7412
g13
g448
sbag3
(g4
g5
(lp7413
Vmistake
p7414
atp7415
Rp7416
(dp7417
g13
g110
sbatp7418
Rp7419
(dp7420
g13
g3162
sbag340
ag340
ag340
ag3
(g4
g5
(lp7421
g3
(g4
g5
(lp7422
Vfor
p7423
atp7424
Rp7425
(dp7426
g13
g217
sbag3
(g4
g5
(lp7427
g3
(g4
g5
(lp7428
g3
(g4
g5
(lp7429
Vme
p7430
atp7431
Rp7432
(dp7433
g13
VPRP
p7434
sbatp7435
Rp7436
(dp7437
g13
VNP
p7438
sbag3
(g4
g5
(lp7439
g3
(g4
g5
(lp7440
g811
atp7441
Rp7442
(dp7443
g13
g815
sbag3
(g4
g5
(lp7444
g3
(g4
g5
(lp7445
Vno
p7446
atp7447
Rp7448
(dp7449
g13
g611
sbag3
(g4
g5
(lp7450
Vmore
p7451
atp7452
Rp7453
(dp7454
g13
VRBR
p7455
sbatp7456
Rp7457
(dp7458
g13
g2472
sbatp7459
Rp7460
(dp7461
g13
g58
sbatp7462
Rp7463
(dp7464
g13
g165
sbag3
(g4
g5
(lp7465
g811
atp7466
Rp7467
(dp7468
g13
g815
sbag3
(g4
g5
(lp7469
g3
(g4
g5
(lp7470
g3
(g4
g5
(lp7471
g3
(g4
g5
(lp7472
Vthe
p7473
atp7474
Rp7475
(dp7476
g13
g104
sbag3
(g4
g5
(lp7477
Vgreat
p7478
atp7479
Rp7480
(dp7481
g13
g448
sbag3
(g4
g5
(lp7482
Vmigration
p7483
atp7484
Rp7485
(dp7486
g13
g110
sbatp7487
Rp7488
(dp7489
g13
g114
sbag3
(g4
g5
(lp7490
g3
(g4
g5
(lp7491
Vto
p7492
atp7493
Rp7494
(dp7495
g13
g139
sbag3
(g4
g5
(lp7496
g3
(g4
g5
(lp7497
Vthe
p7498
atp7499
Rp7500
(dp7501
g13
g104
sbag3
(g4
g5
(lp7502
VNorth
p7503
atp7504
Rp7505
(dp7506
g13
g1049
sbatp7507
Rp7508
(dp7509
g13
g114
sbatp7510
Rp7511
(dp7512
g13
g235
sbatp7513
Rp7514
(dp7515
g13
g58
sbag3
(g4
g5
(lp7516
g64
atp7517
Rp7518
(dp7519
g13
g68
sbatp7520
Rp7521
(dp7522
g13
g165
sbatp7523
Rp7524
(dp7525
g13
g1331
sbag340
ag3
(g4
g5
(lp7526
g3
(g4
g5
(lp7527
g3
(g4
g5
(lp7528
Vtuskegee
p7529
atp7530
Rp7531
(dp7532
g13
g448
sbag3
(g4
g5
(lp7533
g3
(g4
g5
(lp7534
Vwith
p7535
atp7536
Rp7537
(dp7538
g13
g217
sbag3
(g4
g5
(lp7539
g3
(g4
g5
(lp7540
g3
(g4
g5
(lp7541
g255
atp7542
Rp7543
(dp7544
g13
g104
sbag3
(g4
g5
(lp7545
Vnew
p7546
atp7547
Rp7548
(dp7549
g13
g448
sbag3
(g4
g5
(lp7550
Vflag
p7551
atp7552
Rp7553
(dp7554
g13
g110
sbatp7555
Rp7556
(dp7557
g13
g114
sbag3
(g4
g5
(lp7558
g3
(g4
g5
(lp7559
Von
p7560
atp7561
Rp7562
(dp7563
g13
g217
sbag3
(g4
g5
(lp7564
g3
(g4
g5
(lp7565
Vthe
p7566
atp7567
Rp7568
(dp7569
g13
g104
sbag3
(g4
g5
(lp7570
Vtower
p7571
atp7572
Rp7573
(dp7574
g13
g110
sbatp7575
Rp7576
(dp7577
g13
g114
sbatp7578
Rp7579
(dp7580
g13
g235
sbatp7581
Rp7582
(dp7583
g13
g114
sbatp7584
Rp7585
(dp7586
g13
g235
sbatp7587
Rp7588
(dp7589
g13
g705
sbag3
(g4
g5
(lp7590
g1454
atp7591
Rp7592
(dp7593
g13
g68
sbatp7594
Rp7595
(dp7596
g13
g713
sbag3
(g4
g5
(lp7597
g3
(g4
g5
(lp7598
Von
p7599
atp7600
Rp7601
(dp7602
g13
g217
sbag3
(g4
g5
(lp7603
g3
(g4
g5
(lp7604
g3
(g4
g5
(lp7605
Vevery
p7606
atp7607
Rp7608
(dp7609
g13
g104
sbag3
(g4
g5
(lp7610
Vlynching
p7611
atp7612
Rp7613
(dp7614
g13
g251
sbag3
(g4
g5
(lp7615
Vtree
p7616
atp7617
Rp7618
(dp7619
g13
g110
sbatp7620
Rp7621
(dp7622
g13
g114
sbag3
(g4
g5
(lp7623
g811
atp7624
Rp7625
(dp7626
g13
g815
sbag3
(g4
g5
(lp7627
g3
(g4
g5
(lp7628
g255
atp7629
Rp7630
(dp7631
g13
g104
sbag3
(g4
g5
(lp7632
Vposter
p7633
atp7634
Rp7635
(dp7636
g13
g110
sbatp7637
Rp7638
(dp7639
g13
g114
sbag3
(g4
g5
(lp7640
g3
(g4
g5
(lp7641
Vcrying
p7642
atp7643
Rp7644
(dp7645
g13
g251
sbag3
(g4
g5
(lp7646
g3
(g4
g5
(lp7647
VFREE
p7648
atp7649
Rp7650
(dp7651
g13
VNN
p7652
sbatp7653
Rp7654
(dp7655
g13
VNP
p7656
sbatp7657
Rp7658
(dp7659
g13
g58
sbatp7660
Rp7661
(dp7662
g13
g165
sbatp7663
Rp7664
(dp7665
g13
g631
sbag340
ag3
(g4
g5
(lp7666
g3
(g4
g5
(lp7667
g3
(g4
g5
(lp7668
g3
(g4
g5
(lp7669
Vyou
p7670
atp7671
Rp7672
(dp7673
g13
VPRP
p7674
sbatp7675
Rp7676
(dp7677
g13
VNP
p7678
sbag3
(g4
g5
(lp7679
g3
(g4
g5
(lp7680
Vhave
p7681
atp7682
Rp7683
(dp7684
g13
g14
sbag3
(g4
g5
(lp7685
Vlinked
p7686
atp7687
Rp7688
(dp7689
g13
g132
sbag3
(g4
g5
(lp7690
g3
(g4
g5
(lp7691
Vyour
p7692
atp7693
Rp7694
(dp7695
g13
g970
sbag3
(g4
g5
(lp7696
Vhands
p7697
atp7698
Rp7699
(dp7700
g13
g999
sbatp7701
Rp7702
(dp7703
g13
g114
sbag3
(g4
g5
(lp7704
g3
(g4
g5
(lp7705
Vwith
p7706
atp7707
Rp7708
(dp7709
g13
g217
sbag3
(g4
g5
(lp7710
g3
(g4
g5
(lp7711
Vme
p7712
atp7713
Rp7714
(dp7715
g13
VPRP
p7716
sbatp7717
Rp7718
(dp7719
g13
VNP
p7720
sbatp7721
Rp7722
(dp7723
g13
g235
sbatp7724
Rp7725
(dp7726
g13
g58
sbatp7727
Rp7728
(dp7729
g13
g62
sbag3
(g4
g5
(lp7730
g64
atp7731
Rp7732
(dp7733
g13
g68
sbatp7734
Rp7735
(dp7736
g13
g72
sbag340
ag3
(g4
g5
(lp7737
g3
(g4
g5
(lp7738
g3
(g4
g5
(lp7739
Vwe
p7740
atp7741
Rp7742
(dp7743
g13
VPRP
p7744
sbatp7745
Rp7746
(dp7747
g13
VNP
p7748
sbag3
(g4
g5
(lp7749
g3
(g4
g5
(lp7750
Vdid
p7751
atp7752
Rp7753
(dp7754
g13
g79
sbag3
(g4
g5
(lp7755
Vnot
p7756
atp7757
Rp7758
(dp7759
g13
g611
sbag3
(g4
g5
(lp7760
Vknow
p7761
atp7762
Rp7763
(dp7764
g13
g32
sbag3
(g4
g5
(lp7765
g3
(g4
g5
(lp7766
Vthat
p7767
atp7768
Rp7769
(dp7770
g13
g217
sbag3
(g4
g5
(lp7771
g3
(g4
g5
(lp7772
g3
(g4
g5
(lp7773
Vwe
p7774
atp7775
Rp7776
(dp7777
g13
VPRP
p7778
sbatp7779
Rp7780
(dp7781
g13
VNP
p7782
sbag3
(g4
g5
(lp7783
g3
(g4
g5
(lp7784
Vwere
p7785
atp7786
Rp7787
(dp7788
g13
g79
sbag3
(g4
g5
(lp7789
g3
(g4
g5
(lp7790
Vbrothers
p7791
atp7792
Rp7793
(dp7794
g13
VJJ
p7795
sbatp7796
Rp7797
(dp7798
g13
VADJP
p7799
sbatp7800
Rp7801
(dp7802
g13
g58
sbag3
(g4
g5
(lp7803
g64
atp7804
Rp7805
(dp7806
g13
g68
sbatp7807
Rp7808
(dp7809
g13
g165
sbatp7810
Rp7811
(dp7812
g13
g333
sbatp7813
Rp7814
(dp7815
g13
g58
sbatp7816
Rp7817
(dp7818
g13
g692
sbag3
(g4
g5
(lp7819
g3
(g4
g5
(lp7820
g3
(g4
g5
(lp7821
g3
(g4
g5
(lp7822
Vnow
p7823
atp7824
Rp7825
(dp7826
g13
VRB
p7827
sbatp7828
Rp7829
(dp7830
g13
VADVP
p7831
sbag3
(g4
g5
(lp7832
g3
(g4
g5
(lp7833
Vwe
p7834
atp7835
Rp7836
(dp7837
g13
VPRP
p7838
sbatp7839
Rp7840
(dp7841
g13
VNP
p7842
sbag3
(g4
g5
(lp7843
g3
(g4
g5
(lp7844
Vknow
p7845
atp7846
Rp7847
(dp7848
g13
VVB
p7849
sbatp7850
Rp7851
(dp7852
g13
VVP
p7853
sbatp7854
Rp7855
(dp7856
g13
g165
sbag3
(g4
g5
(lp7857
g1454
atp7858
Rp7859
(dp7860
g13
g68
sbatp7861
Rp7862
(dp7863
g13
VFRAG
p7864
sbag3
(g4
g5
(lp7865
g3
(g4
g5
(lp7866
g3
(g4
g5
(lp7867
Vout
p7868
atp7869
Rp7870
(dp7871
g13
VRP
p7872
sbatp7873
Rp7874
(dp7875
g13
VPRT
p7876
sbag3
(g4
g5
(lp7877
g3
(g4
g5
(lp7878
Vof
p7879
atp7880
Rp7881
(dp7882
g13
g217
sbag3
(g4
g5
(lp7883
g3
(g4
g5
(lp7884
Vthat
p7885
atp7886
Rp7887
(dp7888
g13
g104
sbag3
(g4
g5
(lp7889
Vbrotherhood
p7890
atp7891
Rp7892
(dp7893
g13
g110
sbatp7894
Rp7895
(dp7896
g13
g114
sbatp7897
Rp7898
(dp7899
g13
g235
sbatp7900
Rp7901
(dp7902
g13
g5792
sbag3
(g4
g5
(lp7903
g3
(g4
g5
(lp7904
g3
(g4
g5
(lp7905
Vlet
p7906
atp7907
Rp7908
(dp7909
g13
g32
sbag3
(g4
g5
(lp7910
g3
(g4
g5
(lp7911
Vpower
p7912
atp7913
Rp7914
(dp7915
g13
g110
sbag3
(g4
g5
(lp7916
Vgrow
p7917
atp7918
Rp7919
(dp7920
g13
g32
sbatp7921
Rp7922
(dp7923
g13
g114
sbatp7924
Rp7925
(dp7926
g13
g58
sbag3
(g4
g5
(lp7927
g1454
atp7928
Rp7929
(dp7930
g13
g68
sbatp7931
Rp7932
(dp7933
g13
g165
sbag3
(g4
g5
(lp7934
g3
(g4
g5
(lp7935
g3
(g4
g5
(lp7936
Vwe
p7937
atp7938
Rp7939
(dp7940
g13
VPRP
p7941
sbatp7942
Rp7943
(dp7944
g13
VNP
p7945
sbag3
(g4
g5
(lp7946
g3
(g4
g5
(lp7947
Vdid
p7948
atp7949
Rp7950
(dp7951
g13
g79
sbag3
(g4
g5
(lp7952
Vnot
p7953
atp7954
Rp7955
(dp7956
g13
g611
sbag3
(g4
g5
(lp7957
g3
(g4
g5
(lp7958
Vknow
p7959
atp7960
Rp7961
(dp7962
g13
VVB
p7963
sbatp7964
Rp7965
(dp7966
g13
VVP
p7967
sbatp7968
Rp7969
(dp7970
g13
g58
sbatp7971
Rp7972
(dp7973
g13
g692
sbag3
(g4
g5
(lp7974
g3
(g4
g5
(lp7975
Vthat
p7976
atp7977
Rp7978
(dp7979
g13
g217
sbag3
(g4
g5
(lp7980
g3
(g4
g5
(lp7981
g3
(g4
g5
(lp7982
Vwe
p7983
atp7984
Rp7985
(dp7986
g13
VPRP
p7987
sbatp7988
Rp7989
(dp7990
g13
VNP
p7991
sbag3
(g4
g5
(lp7992
g3
(g4
g5
(lp7993
Vwere
p7994
atp7995
Rp7996
(dp7997
g13
g79
sbag3
(g4
g5
(lp7998
g3
(g4
g5
(lp7999
Vstrong
p8000
atp8001
Rp8002
(dp8003
g13
VJJ
p8004
sbatp8005
Rp8006
(dp8007
g13
VADJP
p8008
sbatp8009
Rp8010
(dp8011
g13
g58
sbag3
(g4
g5
(lp8012
g64
atp8013
Rp8014
(dp8015
g13
g68
sbatp8016
Rp8017
(dp8018
g13
g165
sbatp8019
Rp8020
(dp8021
g13
g631
sbag340
ag3
(g4
g5
(lp8022
g3
(g4
g5
(lp8023
g3
(g4
g5
(lp8024
Vin
p8025
atp8026
Rp8027
(dp8028
g13
g217
sbag3
(g4
g5
(lp8029
g3
(g4
g5
(lp8030
Vunion
p8031
atp8032
Rp8033
(dp8034
g13
g110
sbag3
(g4
g5
(lp8035
Vlies
p8036
atp8037
Rp8038
(dp8039
g13
g110
sbatp8040
Rp8041
(dp8042
g13
g114
sbatp8043
Rp8044
(dp8045
g13
g235
sbag3
(g4
g5
(lp8046
g3
(g4
g5
(lp8047
Vour
p8048
atp8049
Rp8050
(dp8051
g13
g970
sbag3
(g4
g5
(lp8052
Vstrength
p8053
atp8054
Rp8055
(dp8056
g13
g110
sbatp8057
Rp8058
(dp8059
g13
g114
sbag3
(g4
g5
(lp8060
g64
atp8061
Rp8062
(dp8063
g13
g68
sbatp8064
Rp8065
(dp8066
g13
g2073
sbag3
(g4
g5
(lp8067
g3
(g4
g5
(lp8068
Vlet
p8069
atp8070
Rp8071
(dp8072
g13
g79
sbag3
(g4
g5
(lp8073
g3
(g4
g5
(lp8074
Vunions
p8075
atp8076
Rp8077
(dp8078
g13
VNNS
p8079
sbatp8080
Rp8081
(dp8082
g13
VNP
p8083
sbag3
(g4
g5
(lp8084
g3
(g4
g5
(lp8085
Vbe
p8086
atp8087
Rp8088
(dp8089
g13
VVB
p8090
sbatp8091
Rp8092
(dp8093
g13
VVP
p8094
sbatp8095
Rp8096
(dp8097
g13
g172
sbag340
ag340
ag340
ag340
ag340
ag3
(g4
g5
(lp8098
g3
(g4
g5
(lp8099
g3
(g4
g5
(lp8100
Vtakes
p8101
atp8102
Rp8103
(dp8104
g13
g308
sbag3
(g4
g5
(lp8105
g3
(g4
g5
(lp8106
Vtools
p8107
atp8108
Rp8109
(dp8110
g13
g448
sbag3
(g4
g5
(lp8111
Vand
p8112
atp8113
Rp8114
(dp8115
g13
g538
sbag3
(g4
g5
(lp8116
Vbanks
p8117
atp8118
Rp8119
(dp8120
g13
g999
sbag3
(g4
g5
(lp8121
Vand
p8122
atp8123
Rp8124
(dp8125
g13
g538
sbag3
(g4
g5
(lp8126
Vmines
p8127
atp8128
Rp8129
(dp8130
g13
g999
sbatp8131
Rp8132
(dp8133
g13
g114
sbatp8134
Rp8135
(dp8136
g13
g62
sbag3
(g4
g5
(lp8137
g64
atp8138
Rp8139
(dp8140
g13
g68
sbatp8141
Rp8142
(dp8143
g13
g72
sbag340
ag3
(g4
g5
(lp8144
g3
(g4
g5
(lp8145
g3
(g4
g5
(lp8146
Vuntil
p8147
atp8148
Rp8149
(dp8150
g13
g217
sbag3
(g4
g5
(lp8151
g3
(g4
g5
(lp8152
Vthe
p8153
atp8154
Rp8155
(dp8156
g13
g104
sbag3
(g4
g5
(lp8157
Vforces
p8158
atp8159
Rp8160
(dp8161
g13
g999
sbatp8162
Rp8163
(dp8164
g13
g114
sbatp8165
Rp8166
(dp8167
g13
g235
sbag3
(g4
g5
(lp8168
g3
(g4
g5
(lp8169
Vof
p8170
atp8171
Rp8172
(dp8173
g13
g217
sbag3
(g4
g5
(lp8174
g3
(g4
g5
(lp8175
Vthe
p8176
atp8177
Rp8178
(dp8179
g13
g104
sbag3
(g4
g5
(lp8180
Vworld
p8181
atp8182
Rp8183
(dp8184
g13
g110
sbatp8185
Rp8186
(dp8187
g13
g114
sbatp8188
Rp8189
(dp8190
g13
g235
sbatp8191
Rp8192
(dp8193
g13
g2753
sbag3
(g4
g5
(lp8194
g3
(g4
g5
(lp8195
g3
(g4
g5
(lp8196
Vare
p8197
atp8198
Rp8199
(dp8200
g13
g14
sbag3
(g4
g5
(lp8201
g3
(g4
g5
(lp8202
Vours
p8203
atp8204
Rp8205
(dp8206
g13
VNNS
p8207
sbatp8208
Rp8209
(dp8210
g13
VNP
p8211
sbatp8212
Rp8213
(dp8214
g13
g62
sbag3
(g4
g5
(lp8215
g1454
atp8216
Rp8217
(dp8218
g13
g68
sbatp8219
Rp8220
(dp8221
g13
g72
sbag340
ag340
ag3
(g4
g5
(lp8222
g3
(g4
g5
(lp8223
g3
(g4
g5
(lp8224
g3
(g4
g5
(lp8225
Vhere
p8226
atp8227
Rp8228
(dp8229
g13
VRB
p8230
sbatp8231
Rp8232
(dp8233
g13
VADVP
p8234
sbag3
(g4
g5
(lp8235
Vis
p8236
atp8237
Rp8238
(dp8239
g13
g308
sbag3
(g4
g5
(lp8240
g3
(g4
g5
(lp8241
Vmy
p8242
atp8243
Rp8244
(dp8245
g13
g970
sbag3
(g4
g5
(lp8246
Vhand
p8247
atp8248
Rp8249
(dp8250
g13
g110
sbatp8251
Rp8252
(dp8253
g13
g114
sbatp8254
Rp8255
(dp8256
g13
VSQ+VP
p8257
sbag3
(g4
g5
(lp8258
g64
atp8259
Rp8260
(dp8261
g13
g68
sbatp8262
Rp8263
(dp8264
g13
g72
sbag340
ag340
ag3
(g4
g5
(lp8265
g3
(g4
g5
(lp8266
g3
(g4
g5
(lp8267
Vwere
p8268
atp8269
Rp8270
(dp8271
g13
g79
sbag3
(g4
g5
(lp8272
g3
(g4
g5
(lp8273
VMan
p8274
atp8275
Rp8276
(dp8277
g13
VNNP
p8278
sbatp8279
Rp8280
(dp8281
g13
VNP
p8282
sbag3
(g4
g5
(lp8283
g3
(g4
g5
(lp8284
Vto
p8285
atp8286
Rp8287
(dp8288
g13
g139
sbag3
(g4
g5
(lp8289
g3
(g4
g5
(lp8290
VMan
p8291
atp8292
Rp8293
(dp8294
g13
VNNP
p8295
sbatp8296
Rp8297
(dp8298
g13
VNP
p8299
sbatp8300
Rp8301
(dp8302
g13
g235
sbatp8303
Rp8304
(dp8305
g13
g8257
sbag3
(g4
g5
(lp8306
g64
atp8307
Rp8308
(dp8309
g13
g68
sbatp8310
Rp8311
(dp8312
g13
g72
sbag340
asS'lh_poems/Enemy.txt'
p8313
(lp8314
g3
(g4
g5
(lp8315
g3
(g4
g5
(lp8316
g3
(g4
g5
(lp8317
Vit
p8318
atp8319
Rp8320
(dp8321
g13
VPRP
p8322
sbatp8323
Rp8324
(dp8325
g13
VNP
p8326
sbag3
(g4
g5
(lp8327
g3
(g4
g5
(lp8328
Vwould
p8329
atp8330
Rp8331
(dp8332
g13
g3711
sbag3
(g4
g5
(lp8333
Vbe
p8334
atp8335
Rp8336
(dp8337
g13
g32
sbag3
(g4
g5
(lp8338
g3
(g4
g5
(lp8339
Vnice
p8340
atp8341
Rp8342
(dp8343
g13
VNN
p8344
sbatp8345
Rp8346
(dp8347
g13
VNP
p8348
sbatp8349
Rp8350
(dp8351
g13
g58
sbatp8352
Rp8353
(dp8354
g13
g692
sbag340
ag3
(g4
g5
(lp8355
g3
(g4
g5
(lp8356
Vto
p8357
atp8358
Rp8359
(dp8360
g13
g139
sbag3
(g4
g5
(lp8361
g3
(g4
g5
(lp8362
Vsomeday
p8363
atp8364
Rp8365
(dp8366
g13
g32
sbag3
(g4
g5
(lp8367
Vmeet
p8368
atp8369
Rp8370
(dp8371
g13
g32
sbag3
(g4
g5
(lp8372
g3
(g4
g5
(lp8373
Vyou
p8374
atp8375
Rp8376
(dp8377
g13
VPRP
p8378
sbatp8379
Rp8380
(dp8381
g13
VNP
p8382
sbatp8383
Rp8384
(dp8385
g13
g58
sbatp8386
Rp8387
(dp8388
g13
g2896
sbag3
(g4
g5
(lp8389
g3
(g4
g5
(lp8390
Vface
p8391
atp8392
Rp8393
(dp8394
g13
g32
sbag3
(g4
g5
(lp8395
g3
(g4
g5
(lp8396
Vto
p8397
atp8398
Rp8399
(dp8400
g13
g139
sbag3
(g4
g5
(lp8401
Vface
p8402
atp8403
Rp8404
(dp8405
g13
g110
sbatp8406
Rp8407
(dp8408
g13
g235
sbatp8409
Rp8410
(dp8411
g13
g2649
sbag3
(g4
g5
(lp8412
g3
(g4
g5
(lp8413
Vwalking
p8414
atp8415
Rp8416
(dp8417
g13
g251
sbag3
(g4
g5
(lp8418
g3
(g4
g5
(lp8419
Vdown
p8420
atp8421
Rp8422
(dp8423
g13
VIN
p8424
sbatp8425
Rp8426
(dp8427
g13
VPRT
p8428
sbatp8429
Rp8430
(dp8431
g13
g154
sbag340
ag3
(g4
g5
(lp8432
g3
(g4
g5
(lp8433
Vas
p8434
atp8435
Rp8436
(dp8437
g13
g217
sbag3
(g4
g5
(lp8438
g3
(g4
g5
(lp8439
g3
(g4
g5
(lp8440
g1023
atp8441
Rp8442
(dp8443
g13
VPRP
p8444
sbatp8445
Rp8446
(dp8447
g13
VNP
p8448
sbag3
(g4
g5
(lp8449
g3
(g4
g5
(lp8450
Vcome
p8451
atp8452
Rp8453
(dp8454
g13
g132
sbag3
(g4
g5
(lp8455
g3
(g4
g5
(lp8456
Vup
p8457
atp8458
Rp8459
(dp8460
g13
VRP
p8461
sbatp8462
Rp8463
(dp8464
g13
VPRT
p8465
sbatp8466
Rp8467
(dp8468
g13
g58
sbatp8469
Rp8470
(dp8471
g13
g165
sbatp8472
Rp8473
(dp8474
g13
g631
sbag3
(g4
g5
(lp8475
g3
(g4
g5
(lp8476
g3
(g4
g5
(lp8477
Vfeeling
p8478
atp8479
Rp8480
(dp8481
g13
g448
sbag3
(g4
g5
(lp8482
Vswell
p8483
atp8484
Rp8485
(dp8486
g13
g448
sbatp8487
Rp8488
(dp8489
g13
g705
sbag3
(g4
g5
(lp8490
g64
atp8491
Rp8492
(dp8493
g13
g68
sbatp8494
Rp8495
(dp8496
g13
g713
sbag340
asS'gb_poems/THE_SONNET_-_BALLAD.txt'
p8497
(lp8498
g3
(g4
g5
(lp8499
g3
(g4
g5
(lp8500
g3
(g4
g5
(lp8501
g3
(g4
g5
(lp8502
g3
(g4
g5
(lp8503
Voh
p8504
atp8505
Rp8506
(dp8507
g13
g448
sbag3
(g4
g5
(lp8508
Vmother
p8509
atp8510
Rp8511
(dp8512
g13
g110
sbatp8513
Rp8514
(dp8515
g13
g114
sbag3
(g4
g5
(lp8516
g811
atp8517
Rp8518
(dp8519
g13
g815
sbatp8520
Rp8521
(dp8522
g13
g114
sbag3
(g4
g5
(lp8523
Vmother
p8524
atp8525
Rp8526
(dp8527
g13
g110
sbatp8528
Rp8529
(dp8530
g13
g114
sbag3
(g4
g5
(lp8531
g3
(g4
g5
(lp8532
g811
atp8533
Rp8534
(dp8535
g13
g815
sbag3
(g4
g5
(lp8536
g3
(g4
g5
(lp8537
g3
(g4
g5
(lp8538
Vwhere
p8539
atp8540
Rp8541
(dp8542
g13
VWRB
p8543
sbatp8544
Rp8545
(dp8546
g13
VWHADVP
p8547
sbag3
(g4
g5
(lp8548
g3
(g4
g5
(lp8549
g3
(g4
g5
(lp8550
Vis
p8551
atp8552
Rp8553
(dp8554
g13
g308
sbag3
(g4
g5
(lp8555
g3
(g4
g5
(lp8556
Vhappiness
p8557
atp8558
Rp8559
(dp8560
g13
VJJ
p8561
sbatp8562
Rp8563
(dp8564
g13
VADJP
p8565
sbatp8566
Rp8567
(dp8568
g13
g58
sbag3
(g4
g5
(lp8569
g901
atp8570
Rp8571
(dp8572
g13
g68
sbatp8573
Rp8574
(dp8575
g13
g165
sbatp8576
Rp8577
(dp8578
g13
g333
sbatp8579
Rp8580
(dp8581
g13
g58
sbatp8582
Rp8583
(dp8584
g13
g3384
sbag340
ag3
(g4
g5
(lp8585
g3
(g4
g5
(lp8586
Vleft
p8587
atp8588
Rp8589
(dp8590
g13
g79
sbag3
(g4
g5
(lp8591
g3
(g4
g5
(lp8592
Vme
p8593
atp8594
Rp8595
(dp8596
g13
VPRP
p8597
sbatp8598
Rp8599
(dp8600
g13
VNP
p8601
sbag3
(g4
g5
(lp8602
g3
(g4
g5
(lp8603
Vlamenting.
p8604
atp8605
Rp8606
(dp8607
g13
g32
sbag3
(g4
g5
(lp8608
g3
(g4
g5
(lp8609
g3
(g4
g5
(lp8610
VNow
p8611
atp8612
Rp8613
(dp8614
g13
VNNP
p8615
sbatp8616
Rp8617
(dp8618
g13
VNP
p8619
sbag3
(g4
g5
(lp8620
g3
(g4
g5
(lp8621
g1023
atp8622
Rp8623
(dp8624
g13
VPRP
p8625
sbatp8626
Rp8627
(dp8628
g13
VNP
p8629
sbag3
(g4
g5
(lp8630
g3
(g4
g5
(lp8631
Vcan
p8632
atp8633
Rp8634
(dp8635
g13
g3711
sbag3
(g4
g5
(lp8636
Vnot
p8637
atp8638
Rp8639
(dp8640
g13
g611
sbag3
(g4
g5
(lp8641
g3
(g4
g5
(lp8642
Vguess
p8643
atp8644
Rp8645
(dp8646
g13
VVB
p8647
sbatp8648
Rp8649
(dp8650
g13
VVP
p8651
sbatp8652
Rp8653
(dp8654
g13
g58
sbatp8655
Rp8656
(dp8657
g13
g165
sbatp8658
Rp8659
(dp8660
g13
g58
sbatp8661
Rp8662
(dp8663
g13
g172
sbag3
(g4
g5
(lp8664
g3
(g4
g5
(lp8665
g3
(g4
g5
(lp8666
Vwhat
p8667
atp8668
Rp8669
(dp8670
g13
VWP
p8671
sbatp8672
Rp8673
(dp8674
g13
VWHNP
p8675
sbag3
(g4
g5
(lp8676
g3
(g4
g5
(lp8677
g3
(g4
g5
(lp8678
g1023
atp8679
Rp8680
(dp8681
g13
VPRP
p8682
sbatp8683
Rp8684
(dp8685
g13
VNP
p8686
sbag3
(g4
g5
(lp8687
g3
(g4
g5
(lp8688
Vcan
p8689
atp8690
Rp8691
(dp8692
g13
g3711
sbag3
(g4
g5
(lp8693
Vuse
p8694
atp8695
Rp8696
(dp8697
g13
g32
sbag3
(g4
g5
(lp8698
g3
(g4
g5
(lp8699
Van
p8700
atp8701
Rp8702
(dp8703
g13
g104
sbag3
(g4
g5
(lp8704
Vempty
p8705
atp8706
Rp8707
(dp8708
g13
g110
sbatp8709
Rp8710
(dp8711
g13
g114
sbag3
(g4
g5
(lp8712
Vheart-cup
p8713
atp8714
Rp8715
(dp8716
g13
g32
sbag3
(g4
g5
(lp8717
g3
(g4
g5
(lp8718
Vfor
p8719
atp8720
Rp8721
(dp8722
g13
VIN
p8723
sbatp8724
Rp8725
(dp8726
g13
VPP
p8727
sbatp8728
Rp8729
(dp8730
g13
g58
sbatp8731
Rp8732
(dp8733
g13
g62
sbag3
(g4
g5
(lp8734
g64
atp8735
Rp8736
(dp8737
g13
g68
sbatp8738
Rp8739
(dp8740
g13
g72
sbag3
(g4
g5
(lp8741
g3
(g4
g5
(lp8742
g3
(g4
g5
(lp8743
g3
(g4
g5
(lp8744
Vhe
p8745
atp8746
Rp8747
(dp8748
g13
VPRP
p8749
sbatp8750
Rp8751
(dp8752
g13
VNP
p8753
sbag3
(g4
g5
(lp8754
g3
(g4
g5
(lp8755
Vwont
p8756
atp8757
Rp8758
(dp8759
g13
g32
sbag3
(g4
g5
(lp8760
Vbe
p8761
atp8762
Rp8763
(dp8764
g13
g32
sbag3
(g4
g5
(lp8765
Vcoming
p8766
atp8767
Rp8768
(dp8769
g13
g251
sbag3
(g4
g5
(lp8770
g3
(g4
g5
(lp8771
Vback
p8772
atp8773
Rp8774
(dp8775
g13
g611
sbag3
(g4
g5
(lp8776
Vhere
p8777
atp8778
Rp8779
(dp8780
g13
g611
sbag3
(g4
g5
(lp8781
Vany
p8782
atp8783
Rp8784
(dp8785
g13
g104
sbag3
(g4
g5
(lp8786
Vmore
p8787
atp8788
Rp8789
(dp8790
g13
g7455
sbatp8791
Rp8792
(dp8793
g13
g2472
sbatp8794
Rp8795
(dp8796
g13
g58
sbatp8797
Rp8798
(dp8799
g13
g62
sbag3
(g4
g5
(lp8800
g64
atp8801
Rp8802
(dp8803
g13
g68
sbatp8804
Rp8805
(dp8806
g13
g72
sbag3
(g4
g5
(lp8807
g3
(g4
g5
(lp8808
g3
(g4
g5
(lp8809
g3
(g4
g5
(lp8810
Vsome
p8811
atp8812
Rp8813
(dp8814
g13
g104
sbag3
(g4
g5
(lp8815
Vday
p8816
atp8817
Rp8818
(dp8819
g13
g110
sbatp8820
Rp8821
(dp8822
g13
g114
sbag3
(g4
g5
(lp8823
g3
(g4
g5
(lp8824
Vthe
p8825
atp8826
Rp8827
(dp8828
g13
g104
sbag3
(g4
g5
(lp8829
Vwar
p8830
atp8831
Rp8832
(dp8833
g13
g110
sbatp8834
Rp8835
(dp8836
g13
g114
sbag3
(g4
g5
(lp8837
g3
(g4
g5
(lp8838
Vwill
p8839
atp8840
Rp8841
(dp8842
g13
g3711
sbag3
(g4
g5
(lp8843
g3
(g4
g5
(lp8844
Vend
p8845
atp8846
Rp8847
(dp8848
g13
VVB
p8849
sbatp8850
Rp8851
(dp8852
g13
VVP
p8853
sbatp8854
Rp8855
(dp8856
g13
g58
sbatp8857
Rp8858
(dp8859
g13
g165
sbag3
(g4
g5
(lp8860
g811
atp8861
Rp8862
(dp8863
g13
g815
sbag3
(g4
g5
(lp8864
g3
(g4
g5
(lp8865
Vbut
p8866
atp8867
Rp8868
(dp8869
g13
g538
sbag3
(g4
g5
(lp8870
g811
atp8871
Rp8872
(dp8873
g13
g815
sbag3
(g4
g5
(lp8874
g3
(g4
g5
(lp8875
Voh
p8876
atp8877
Rp8878
(dp8879
g13
VNNS
p8880
sbatp8881
Rp8882
(dp8883
g13
VNP
p8884
sbag3
(g4
g5
(lp8885
g811
atp8886
Rp8887
(dp8888
g13
g815
sbag3
(g4
g5
(lp8889
g3
(g4
g5
(lp8890
g1023
atp8891
Rp8892
(dp8893
g13
VPRP
p8894
sbatp8895
Rp8896
(dp8897
g13
VNP
p8898
sbag3
(g4
g5
(lp8899
g3
(g4
g5
(lp8900
Vknew
p8901
atp8902
Rp8903
(dp8904
g13
VVBP
p8905
sbatp8906
Rp8907
(dp8908
g13
VVP
p8909
sbatp8910
Rp8911
(dp8912
g13
g165
sbatp8913
Rp8914
(dp8915
g13
g1331
sbag3
(g4
g5
(lp8916
g3
(g4
g5
(lp8917
g3
(g4
g5
(lp8918
Vwhen
p8919
atp8920
Rp8921
(dp8922
g13
VWRB
p8923
sbatp8924
Rp8925
(dp8926
g13
VWHADVP
p8927
sbag3
(g4
g5
(lp8928
g3
(g4
g5
(lp8929
g3
(g4
g5
(lp8930
Vhe
p8931
atp8932
Rp8933
(dp8934
g13
VPRP
p8935
sbatp8936
Rp8937
(dp8938
g13
VNP
p8939
sbag3
(g4
g5
(lp8940
g3
(g4
g5
(lp8941
Vwent
p8942
atp8943
Rp8944
(dp8945
g13
g79
sbag3
(g4
g5
(lp8946
Vwalking
p8947
atp8948
Rp8949
(dp8950
g13
g251
sbag3
(g4
g5
(lp8951
g3
(g4
g5
(lp8952
Vgrandly
p8953
atp8954
Rp8955
(dp8956
g13
VRB
p8957
sbatp8958
Rp8959
(dp8960
g13
VADVP
p8961
sbag3
(g4
g5
(lp8962
g3
(g4
g5
(lp8963
Vout
p8964
atp8965
Rp8966
(dp8967
g13
VRP
p8968
sbatp8969
Rp8970
(dp8971
g13
VPRT
p8972
sbag3
(g4
g5
(lp8973
g3
(g4
g5
(lp8974
Vthat
p8975
atp8976
Rp8977
(dp8978
g13
g104
sbag3
(g4
g5
(lp8979
Vdoor
p8980
atp8981
Rp8982
(dp8983
g13
g110
sbatp8984
Rp8985
(dp8986
g13
g114
sbatp8987
Rp8988
(dp8989
g13
g58
sbatp8990
Rp8991
(dp8992
g13
g165
sbatp8993
Rp8994
(dp8995
g13
g333
sbag3
(g4
g5
(lp8996
g3
(g4
g5
(lp8997
Vthat
p8998
atp8999
Rp9000
(dp9001
g13
g217
sbag3
(g4
g5
(lp9002
g3
(g4
g5
(lp9003
g3
(g4
g5
(lp9004
Vmy
p9005
atp9006
Rp9007
(dp9008
g13
g970
sbag3
(g4
g5
(lp9009
Vsweet
p9010
atp9011
Rp9012
(dp9013
g13
g110
sbatp9014
Rp9015
(dp9016
g13
g114
sbag3
(g4
g5
(lp9017
g3
(g4
g5
(lp9018
Vlove
p9019
atp9020
Rp9021
(dp9022
g13
g14
sbag3
(g4
g5
(lp9023
Vwould
p9024
atp9025
Rp9026
(dp9027
g13
g3711
sbag3
(g4
g5
(lp9028
Vhave
p9029
atp9030
Rp9031
(dp9032
g13
g14
sbag3
(g4
g5
(lp9033
g3
(g4
g5
(lp9034
Vto
p9035
atp9036
Rp9037
(dp9038
g13
g139
sbag3
(g4
g5
(lp9039
g3
(g4
g5
(lp9040
Vbe
p9041
atp9042
Rp9043
(dp9044
g13
g32
sbag3
(g4
g5
(lp9045
g3
(g4
g5
(lp9046
Vuntrue
p9047
atp9048
Rp9049
(dp9050
g13
VNN
p9051
sbatp9052
Rp9053
(dp9054
g13
VNP
p9055
sbatp9056
Rp9057
(dp9058
g13
g58
sbatp9059
Rp9060
(dp9061
g13
g154
sbatp9062
Rp9063
(dp9064
g13
g58
sbag3
(g4
g5
(lp9065
g64
atp9066
Rp9067
(dp9068
g13
g68
sbatp9069
Rp9070
(dp9071
g13
g165
sbatp9072
Rp9073
(dp9074
g13
g631
sbag3
(g4
g5
(lp9075
g3
(g4
g5
(lp9076
g3
(g4
g5
(lp9077
Vwould
p9078
atp9079
Rp9080
(dp9081
g13
g3711
sbag3
(g4
g5
(lp9082
Vhave
p9083
atp9084
Rp9085
(dp9086
g13
g14
sbag3
(g4
g5
(lp9087
g3
(g4
g5
(lp9088
Vto
p9089
atp9090
Rp9091
(dp9092
g13
g139
sbag3
(g4
g5
(lp9093
g3
(g4
g5
(lp9094
Vbe
p9095
atp9096
Rp9097
(dp9098
g13
g32
sbag3
(g4
g5
(lp9099
g3
(g4
g5
(lp9100
Vuntrue.
p9101
atp9102
Rp9103
(dp9104
g13
g1049
sbag3
(g4
g5
(lp9105
VWould
p9106
atp9107
Rp9108
(dp9109
g13
g1049
sbatp9110
Rp9111
(dp9112
g13
g114
sbatp9113
Rp9114
(dp9115
g13
g58
sbatp9116
Rp9117
(dp9118
g13
g154
sbatp9119
Rp9120
(dp9121
g13
g58
sbag3
(g4
g5
(lp9122
Vhave
p9123
atp9124
Rp9125
(dp9126
g13
g14
sbag3
(g4
g5
(lp9127
g3
(g4
g5
(lp9128
Vto
p9129
atp9130
Rp9131
(dp9132
g13
g139
sbag3
(g4
g5
(lp9133
g3
(g4
g5
(lp9134
Vcourt
p9135
atp9136
Rp9137
(dp9138
g13
VNN
p9139
sbatp9140
Rp9141
(dp9142
g13
VNP
p9143
sbatp9144
Rp9145
(dp9146
g13
g235
sbatp9147
Rp9148
(dp9149
g13
g154
sbag3
(g4
g5
(lp9150
g3
(g4
g5
(lp9151
g3
(g4
g5
(lp9152
Vcoquettish
p9153
atp9154
Rp9155
(dp9156
g13
g448
sbag3
(g4
g5
(lp9157
Vdeath
p9158
atp9159
Rp9160
(dp9161
g13
g110
sbatp9162
Rp9163
(dp9164
g13
g114
sbag3
(g4
g5
(lp9165
g3
(g4
g5
(lp9166
g811
atp9167
Rp9168
(dp9169
g13
g815
sbag3
(g4
g5
(lp9170
g3
(g4
g5
(lp9171
g3
(g4
g5
(lp9172
Vwhose
p9173
atp9174
Rp9175
(dp9176
g13
VWP$
p9177
sbag3
(g4
g5
(lp9178
Vimpudent
p9179
atp9180
Rp9181
(dp9182
g13
g110
sbatp9183
Rp9184
(dp9185
g13
VWHNP
p9186
sbag3
(g4
g5
(lp9187
Vand
p9188
atp9189
Rp9190
(dp9191
g13
g538
sbag3
(g4
g5
(lp9192
Vstrange
p9193
atp9194
Rp9195
(dp9196
g13
g611
sbatp9197
Rp9198
(dp9199
g13
g333
sbatp9200
Rp9201
(dp9202
g13
g58
sbatp9203
Rp9204
(dp9205
g13
g3384
sbag3
(g4
g5
(lp9206
g3
(g4
g5
(lp9207
g3
(g4
g5
(lp9208
Vpossessive
p9209
atp9210
Rp9211
(dp9212
g13
VJJ
p9213
sbatp9214
Rp9215
(dp9216
g13
VADJP
p9217
sbag3
(g4
g5
(lp9218
g3
(g4
g5
(lp9219
Varms
p9220
atp9221
Rp9222
(dp9223
g13
VJJ
p9224
sbatp9225
Rp9226
(dp9227
g13
VADJP
p9228
sbag3
(g4
g5
(lp9229
g3
(g4
g5
(lp9230
g3
(g4
g5
(lp9231
Vand
p9232
atp9233
Rp9234
(dp9235
g13
g538
sbag3
(g4
g5
(lp9236
Vbeauty
p9237
atp9238
Rp9239
(dp9240
g13
g999
sbatp9241
Rp9242
(dp9243
g13
g114
sbag3
(g4
g5
(lp9244
g3
(g4
g5
(lp9245
V(
p9246
atp9247
Rp9248
(dp9249
g13
V-LRB-
p9250
sbag3
(g4
g5
(lp9251
g3
(g4
g5
(lp9252
Vof
p9253
atp9254
Rp9255
(dp9256
g13
g217
sbag3
(g4
g5
(lp9257
g3
(g4
g5
(lp9258
g255
atp9259
Rp9260
(dp9261
g13
g104
sbag3
(g4
g5
(lp9262
Vsort
p9263
atp9264
Rp9265
(dp9266
g13
g110
sbatp9267
Rp9268
(dp9269
g13
g114
sbatp9270
Rp9271
(dp9272
g13
g235
sbag3
(g4
g5
(lp9273
g788
atp9274
Rp9275
(dp9276
g13
g792
sbatp9277
Rp9278
(dp9279
g13
g796
sbatp9280
Rp9281
(dp9282
g13
g114
sbatp9283
Rp9284
(dp9285
g13
VRRC
p9286
sbag3
(g4
g5
(lp9287
g3
(g4
g5
(lp9288
g3
(g4
g5
(lp9289
Vcan
p9290
atp9291
Rp9292
(dp9293
g13
g3711
sbag3
(g4
g5
(lp9294
Vmake
p9295
atp9296
Rp9297
(dp9298
g13
g32
sbag3
(g4
g5
(lp9299
g3
(g4
g5
(lp9300
g3
(g4
g5
(lp9301
g255
atp9302
Rp9303
(dp9304
g13
g104
sbag3
(g4
g5
(lp9305
Vhard
p9306
atp9307
Rp9308
(dp9309
g13
g448
sbag3
(g4
g5
(lp9310
Vman
p9311
atp9312
Rp9313
(dp9314
g13
g110
sbatp9315
Rp9316
(dp9317
g13
g114
sbag3
(g4
g5
(lp9318
Vhesitate
p9319
atp9320
Rp9321
(dp9322
g13
g448
sbag3
(g4
g5
(lp9323
V--
p9324
atp9325
Rp9326
(dp9327
g13
g5635
sbag3
(g4
g5
(lp9328
Vand
p9329
atp9330
Rp9331
(dp9332
g13
g538
sbag3
(g4
g5
(lp9333
Vchange
p9334
atp9335
Rp9336
(dp9337
g13
g110
sbatp9338
Rp9339
(dp9340
g13
g114
sbatp9341
Rp9342
(dp9343
g13
g58
sbag3
(g4
g5
(lp9344
g64
atp9345
Rp9346
(dp9347
g13
g68
sbatp9348
Rp9349
(dp9350
g13
g165
sbag3
(g4
g5
(lp9351
g3
(g4
g5
(lp9352
Vand
p9353
atp9354
Rp9355
(dp9356
g13
g538
sbag3
(g4
g5
(lp9357
g3
(g4
g5
(lp9358
Vhe
p9359
atp9360
Rp9361
(dp9362
g13
VPRP
p9363
sbatp9364
Rp9365
(dp9366
g13
VNP
p9367
sbag3
(g4
g5
(lp9368
g3
(g4
g5
(lp9369
Vwill
p9370
atp9371
Rp9372
(dp9373
g13
g3711
sbag3
(g4
g5
(lp9374
Vbe
p9375
atp9376
Rp9377
(dp9378
g13
g32
sbag3
(g4
g5
(lp9379
g3
(g4
g5
(lp9380
Vthe
p9381
atp9382
Rp9383
(dp9384
g13
g104
sbag3
(g4
g5
(lp9385
g3
(g4
g5
(lp9386
Vone
p9387
atp9388
Rp9389
(dp9390
g13
VCD
p9391
sbatp9392
Rp9393
(dp9394
g13
VNP
p9395
sbag3
(g4
g5
(lp9396
g3
(g4
g5
(lp9397
Vto
p9398
atp9399
Rp9400
(dp9401
g13
g139
sbag3
(g4
g5
(lp9402
g3
(g4
g5
(lp9403
Vstammer
p9404
atp9405
Rp9406
(dp9407
g13
g448
sbag3
(g4
g5
(lp9408
g811
atp9409
Rp9410
(dp9411
g13
g815
sbag3
(g4
g5
(lp9412
g3
(g4
g5
(lp9413
VYes
p9414
atp9415
Rp9416
(dp9417
g13
VNNP
p9418
sbatp9419
Rp9420
(dp9421
g13
VNP
p9422
sbatp9423
Rp9424
(dp9425
g13
g114
sbatp9426
Rp9427
(dp9428
g13
g235
sbatp9429
Rp9430
(dp9431
g13
g114
sbatp9432
Rp9433
(dp9434
g13
g58
sbag3
(g4
g5
(lp9435
g64
atp9436
Rp9437
(dp9438
g13
g68
sbatp9439
Rp9440
(dp9441
g13
g165
sbag3
(g4
g5
(lp9442
g3
(g4
g5
(lp9443
g3
(g4
g5
(lp9444
g3
(g4
g5
(lp9445
g3
(g4
g5
(lp9446
Voh
p9447
atp9448
Rp9449
(dp9450
g13
g448
sbag3
(g4
g5
(lp9451
Vmother
p9452
atp9453
Rp9454
(dp9455
g13
g110
sbatp9456
Rp9457
(dp9458
g13
g114
sbag3
(g4
g5
(lp9459
g811
atp9460
Rp9461
(dp9462
g13
g815
sbatp9463
Rp9464
(dp9465
g13
g114
sbag3
(g4
g5
(lp9466
Vmother
p9467
atp9468
Rp9469
(dp9470
g13
g110
sbatp9471
Rp9472
(dp9473
g13
g114
sbag3
(g4
g5
(lp9474
g3
(g4
g5
(lp9475
g811
atp9476
Rp9477
(dp9478
g13
g815
sbag3
(g4
g5
(lp9479
g3
(g4
g5
(lp9480
g3
(g4
g5
(lp9481
Vwhere
p9482
atp9483
Rp9484
(dp9485
g13
VWRB
p9486
sbatp9487
Rp9488
(dp9489
g13
VWHADVP
p9490
sbag3
(g4
g5
(lp9491
g3
(g4
g5
(lp9492
g3
(g4
g5
(lp9493
Vis
p9494
atp9495
Rp9496
(dp9497
g13
g308
sbag3
(g4
g5
(lp9498
g3
(g4
g5
(lp9499
Vhappiness
p9500
atp9501
Rp9502
(dp9503
g13
VJJ
p9504
sbatp9505
Rp9506
(dp9507
g13
VADJP
p9508
sbatp9509
Rp9510
(dp9511
g13
g58
sbag3
(g4
g5
(lp9512
g901
atp9513
Rp9514
(dp9515
g13
g68
sbatp9516
Rp9517
(dp9518
g13
g165
sbatp9519
Rp9520
(dp9521
g13
g333
sbatp9522
Rp9523
(dp9524
g13
g58
sbatp9525
Rp9526
(dp9527
g13
g3384
sbag340
asS'lh_poems/The_Ballad_Of_The_Landlord.txt'
p9528
(lp9529
g3
(g4
g5
(lp9530
g3
(g4
g5
(lp9531
Vlandlord
p9532
atp9533
Rp9534
(dp9535
g13
g110
sbag3
(g4
g5
(lp9536
g811
atp9537
Rp9538
(dp9539
g13
g815
sbag3
(g4
g5
(lp9540
Vlandlord,
p9541
atp9542
Rp9543
(dp9544
g13
g110
sbatp9545
Rp9546
(dp9547
g13
VINTJ
p9548
sbag340
ag340
ag340
ag340
ag340
ag340
ag340
ag340
ag340
ag340
ag340
ag340
ag340
ag340
ag340
ag340
ag340
ag340
ag340
ag340
ag340
ag340
ag340
ag340
ag340
ag340
ag340
ag340
ag340
ag340
ag340
ag340
ag340
ag340
ag340
ag340
ag340
ag340
ag340
asS'lh_poems/I_too.txt'
p9549
(lp9550
g3
(g4
g5
(lp9551
g3
(g4
g5
(lp9552
g3
(g4
g5
(lp9553
g1023
atp9554
Rp9555
(dp9556
g13
VPRP
p9557
sbatp9558
Rp9559
(dp9560
g13
VNP
p9561
sbag3
(g4
g5
(lp9562
g3
(g4
g5
(lp9563
g811
atp9564
Rp9565
(dp9566
g13
g815
sbag3
(g4
g5
(lp9567
g3
(g4
g5
(lp9568
Vtoo
p9569
atp9570
Rp9571
(dp9572
g13
g611
sbag3
(g4
g5
(lp9573
g3
(g4
g5
(lp9574
g811
atp9575
Rp9576
(dp9577
g13
g815
sbag3
(g4
g5
(lp9578
g3
(g4
g5
(lp9579
Vsing
p9580
atp9581
Rp9582
(dp9583
g13
g251
sbag3
(g4
g5
(lp9584
g3
(g4
g5
(lp9585
VAmerica
p9586
atp9587
Rp9588
(dp9589
g13
VNNP
p9590
sbatp9591
Rp9592
(dp9593
g13
VNP
p9594
sbatp9595
Rp9596
(dp9597
g13
g58
sbag3
(g4
g5
(lp9598
g64
atp9599
Rp9600
(dp9601
g13
g68
sbatp9602
Rp9603
(dp9604
g13
g165
sbatp9605
Rp9606
(dp9607
g13
g333
sbatp9608
Rp9609
(dp9610
g13
g58
sbatp9611
Rp9612
(dp9613
g13
g692
sbag340
ag3
(g4
g5
(lp9614
g3
(g4
g5
(lp9615
g3
(g4
g5
(lp9616
g3
(g4
g5
(lp9617
g1023
atp9618
Rp9619
(dp9620
g13
VPRP
p9621
sbatp9622
Rp9623
(dp9624
g13
VNP
p9625
sbag3
(g4
g5
(lp9626
g3
(g4
g5
(lp9627
Vam
p9628
atp9629
Rp9630
(dp9631
g13
g32
sbag3
(g4
g5
(lp9632
g3
(g4
g5
(lp9633
Vthe
p9634
atp9635
Rp9636
(dp9637
g13
g104
sbag3
(g4
g5
(lp9638
Vdarker
p9639
atp9640
Rp9641
(dp9642
g13
g448
sbag3
(g4
g5
(lp9643
Vbrother
p9644
atp9645
Rp9646
(dp9647
g13
g110
sbatp9648
Rp9649
(dp9650
g13
g114
sbatp9651
Rp9652
(dp9653
g13
g58
sbatp9654
Rp9655
(dp9656
g13
g62
sbag3
(g4
g5
(lp9657
g64
atp9658
Rp9659
(dp9660
g13
g68
sbatp9661
Rp9662
(dp9663
g13
g72
sbag3
(g4
g5
(lp9664
g3
(g4
g5
(lp9665
g3
(g4
g5
(lp9666
Vthey
p9667
atp9668
Rp9669
(dp9670
g13
VPRP
p9671
sbatp9672
Rp9673
(dp9674
g13
VNP
p9675
sbag3
(g4
g5
(lp9676
g3
(g4
g5
(lp9677
Vsend
p9678
atp9679
Rp9680
(dp9681
g13
g32
sbag3
(g4
g5
(lp9682
g3
(g4
g5
(lp9683
g3
(g4
g5
(lp9684
Vme
p9685
atp9686
Rp9687
(dp9688
g13
VPRP
p9689
sbatp9690
Rp9691
(dp9692
g13
VNP
p9693
sbag3
(g4
g5
(lp9694
g3
(g4
g5
(lp9695
g3
(g4
g5
(lp9696
Vto
p9697
atp9698
Rp9699
(dp9700
g13
g139
sbag3
(g4
g5
(lp9701
g3
(g4
g5
(lp9702
Veat
p9703
atp9704
Rp9705
(dp9706
g13
VVB
p9707
sbatp9708
Rp9709
(dp9710
g13
VVP
p9711
sbatp9712
Rp9713
(dp9714
g13
g154
sbag3
(g4
g5
(lp9715
g3
(g4
g5
(lp9716
Vin
p9717
atp9718
Rp9719
(dp9720
g13
g217
sbag3
(g4
g5
(lp9721
g3
(g4
g5
(lp9722
Vthe
p9723
atp9724
Rp9725
(dp9726
g13
g104
sbag3
(g4
g5
(lp9727
Vkitchen
p9728
atp9729
Rp9730
(dp9731
g13
g110
sbatp9732
Rp9733
(dp9734
g13
g114
sbatp9735
Rp9736
(dp9737
g13
g235
sbatp9738
Rp9739
(dp9740
g13
g58
sbatp9741
Rp9742
(dp9743
g13
g692
sbatp9744
Rp9745
(dp9746
g13
g58
sbatp9747
Rp9748
(dp9749
g13
g692
sbag340
ag340
ag340
ag3
(g4
g5
(lp9750
g3
(g4
g5
(lp9751
Vand
p9752
atp9753
Rp9754
(dp9755
g13
g538
sbag3
(g4
g5
(lp9756
g3
(g4
g5
(lp9757
Vgrow
p9758
atp9759
Rp9760
(dp9761
g13
g32
sbag3
(g4
g5
(lp9762
g3
(g4
g5
(lp9763
Vstrong
p9764
atp9765
Rp9766
(dp9767
g13
VJJ
p9768
sbatp9769
Rp9770
(dp9771
g13
VADJP
p9772
sbatp9773
Rp9774
(dp9775
g13
g58
sbag3
(g4
g5
(lp9776
g64
atp9777
Rp9778
(dp9779
g13
g68
sbatp9780
Rp9781
(dp9782
g13
g165
sbag340
ag340
ag3
(g4
g5
(lp9783
g3
(g4
g5
(lp9784
g3
(g4
g5
(lp9785
Vill
p9786
atp9787
Rp9788
(dp9789
g13
VNN
p9790
sbatp9791
Rp9792
(dp9793
g13
VNP
p9794
sbag3
(g4
g5
(lp9795
Vbe
p9796
atp9797
Rp9798
(dp9799
g13
g32
sbag3
(g4
g5
(lp9800
g3
(g4
g5
(lp9801
Vat
p9802
atp9803
Rp9804
(dp9805
g13
g217
sbag3
(g4
g5
(lp9806
g3
(g4
g5
(lp9807
Vthe
p9808
atp9809
Rp9810
(dp9811
g13
g104
sbag3
(g4
g5
(lp9812
Vtable
p9813
atp9814
Rp9815
(dp9816
g13
g110
sbatp9817
Rp9818
(dp9819
g13
g114
sbatp9820
Rp9821
(dp9822
g13
g235
sbatp9823
Rp9824
(dp9825
g13
g2649
sbag3
(g4
g5
(lp9826
g3
(g4
g5
(lp9827
g3
(g4
g5
(lp9828
Vwhen
p9829
atp9830
Rp9831
(dp9832
g13
VWRB
p9833
sbatp9834
Rp9835
(dp9836
g13
VWHADVP
p9837
sbag3
(g4
g5
(lp9838
g3
(g4
g5
(lp9839
Vcompany
p9840
atp9841
Rp9842
(dp9843
g13
g110
sbag3
(g4
g5
(lp9844
Vcomes
p9845
atp9846
Rp9847
(dp9848
g13
g308
sbatp9849
Rp9850
(dp9851
g13
g114
sbag3
(g4
g5
(lp9852
g64
atp9853
Rp9854
(dp9855
g13
g68
sbatp9856
Rp9857
(dp9858
g13
g72
sbag3
(g4
g5
(lp9859
g3
(g4
g5
(lp9860
Vnobodyll
p9861
atp9862
Rp9863
(dp9864
g13
g448
sbag3
(g4
g5
(lp9865
Vdare
p9866
atp9867
Rp9868
(dp9869
g13
g110
sbatp9870
Rp9871
(dp9872
g13
VNX+NX
p9873
sbag340
ag340
ag3
(g4
g5
(lp9874
g3
(g4
g5
(lp9875
Vthen
p9876
atp9877
Rp9878
(dp9879
g13
g611
sbag3
(g4
g5
(lp9880
g64
atp9881
Rp9882
(dp9883
g13
g68
sbatp9884
Rp9885
(dp9886
g13
g2472
sbag340
ag340
ag3
(g4
g5
(lp9887
g3
(g4
g5
(lp9888
g3
(g4
g5
(lp9889
Vtheyll
p9890
atp9891
Rp9892
(dp9893
g13
VRB
p9894
sbatp9895
Rp9896
(dp9897
g13
VADVP
p9898
sbag3
(g4
g5
(lp9899
g3
(g4
g5
(lp9900
Vsee
p9901
atp9902
Rp9903
(dp9904
g13
g32
sbag3
(g4
g5
(lp9905
g3
(g4
g5
(lp9906
g3
(g4
g5
(lp9907
Vhow
p9908
atp9909
Rp9910
(dp9911
g13
VWRB
p9912
sbag3
(g4
g5
(lp9913
Vbeautiful
p9914
atp9915
Rp9916
(dp9917
g13
g448
sbatp9918
Rp9919
(dp9920
g13
VWHADVP
p9921
sbag3
(g4
g5
(lp9922
g3
(g4
g5
(lp9923
g3
(g4
g5
(lp9924
g1023
atp9925
Rp9926
(dp9927
g13
VPRP
p9928
sbatp9929
Rp9930
(dp9931
g13
VNP
p9932
sbag3
(g4
g5
(lp9933
g3
(g4
g5
(lp9934
Vam
p9935
atp9936
Rp9937
(dp9938
g13
VVBP
p9939
sbatp9940
Rp9941
(dp9942
g13
VVP
p9943
sbatp9944
Rp9945
(dp9946
g13
g165
sbatp9947
Rp9948
(dp9949
g13
g333
sbatp9950
Rp9951
(dp9952
g13
g58
sbatp9953
Rp9954
(dp9955
g13
g2336
sbag3
(g4
g5
(lp9956
g3
(g4
g5
(lp9957
Vand
p9958
atp9959
Rp9960
(dp9961
g13
g538
sbag3
(g4
g5
(lp9962
Vbe
p9963
atp9964
Rp9965
(dp9966
g13
g32
sbag3
(g4
g5
(lp9967
g3
(g4
g5
(lp9968
Vashamed
p9969
atp9970
Rp9971
(dp9972
g13
VVBN
p9973
sbatp9974
Rp9975
(dp9976
g13
VVP
p9977
sbatp9978
Rp9979
(dp9980
g13
g58
sbag340
asS'gb_poems/Kitchenete_Building.txt'
p9981
(lp9982
g3
(g4
g5
(lp9983
g3
(g4
g5
(lp9984
g3
(g4
g5
(lp9985
Vwe
p9986
atp9987
Rp9988
(dp9989
g13
VPRP
p9990
sbatp9991
Rp9992
(dp9993
g13
VNP
p9994
sbag3
(g4
g5
(lp9995
g3
(g4
g5
(lp9996
Vare
p9997
atp9998
Rp9999
(dp10000
g13
g14
sbag3
(g4
g5
(lp10001
g3
(g4
g5
(lp10002
g3
(g4
g5
(lp10003
g3
(g4
g5
(lp10004
Vthings
p10005
atp10006
Rp10007
(dp10008
g13
VNNS
p10009
sbatp10010
Rp10011
(dp10012
g13
VNP
p10013
sbag3
(g4
g5
(lp10014
g3
(g4
g5
(lp10015
Vof
p10016
atp10017
Rp10018
(dp10019
g13
g217
sbag3
(g4
g5
(lp10020
g3
(g4
g5
(lp10021
Vdry
p10022
atp10023
Rp10024
(dp10025
g13
g448
sbag3
(g4
g5
(lp10026
Vhours
p10027
atp10028
Rp10029
(dp10030
g13
g999
sbatp10031
Rp10032
(dp10033
g13
g114
sbatp10034
Rp10035
(dp10036
g13
g235
sbatp10037
Rp10038
(dp10039
g13
g114
sbag3
(g4
g5
(lp10040
Vand
p10041
atp10042
Rp10043
(dp10044
g13
g538
sbag3
(g4
g5
(lp10045
Vthe
p10046
atp10047
Rp10048
(dp10049
g13
g104
sbag3
(g4
g5
(lp10050
Vinvoluntary
p10051
atp10052
Rp10053
(dp10054
g13
g448
sbag3
(g4
g5
(lp10055
Vplan,
p10056
atp10057
Rp10058
(dp10059
g13
g110
sbatp10060
Rp10061
(dp10062
g13
g114
sbatp10063
Rp10064
(dp10065
g13
g58
sbatp10066
Rp10067
(dp10068
g13
g692
sbag340
ag340
ag340
ag340
ag340
ag340
ag340
ag340
ag340
ag340
ag340
ag340
ag340
ag340
ag340
ag340
asS'gb_poems/We_Real_Cool.txt'
p10069
(lp10070
g3
(g4
g5
(lp10071
g3
(g4
g5
(lp10072
Vthe
p10073
atp10074
Rp10075
(dp10076
g13
g104
sbag3
(g4
g5
(lp10077
VPool
p10078
atp10079
Rp10080
(dp10081
g13
g1049
sbag3
(g4
g5
(lp10082
VPlayers
p10083
atp10084
Rp10085
(dp10086
g13
g1049
sbatp10087
Rp10088
(dp10089
g13
VNX+NP
p10090
sbag3
(g4
g5
(lp10091
g3
(g4
g5
(lp10092
g3
(g4
g5
(lp10093
Vseven
p10094
atp10095
Rp10096
(dp10097
g13
VCD
p10098
sbatp10099
Rp10100
(dp10101
g13
VNP
p10102
sbag3
(g4
g5
(lp10103
g3
(g4
g5
(lp10104
Vat
p10105
atp10106
Rp10107
(dp10108
g13
g217
sbag3
(g4
g5
(lp10109
g3
(g4
g5
(lp10110
Vthe
p10111
atp10112
Rp10113
(dp10114
g13
g104
sbag3
(g4
g5
(lp10115
VGolden
p10116
atp10117
Rp10118
(dp10119
g13
g1049
sbag3
(g4
g5
(lp10120
VShovel
p10121
atp10122
Rp10123
(dp10124
g13
g1049
sbatp10125
Rp10126
(dp10127
g13
g114
sbatp10128
Rp10129
(dp10130
g13
g235
sbatp10131
Rp10132
(dp10133
g13
g2472
sbag340
ag3
(g4
g5
(lp10134
g3
(g4
g5
(lp10135
g3
(g4
g5
(lp10136
Vwe
p10137
atp10138
Rp10139
(dp10140
g13
VPRP
p10141
sbatp10142
Rp10143
(dp10144
g13
VNP
p10145
sbag3
(g4
g5
(lp10146
g3
(g4
g5
(lp10147
Vreal
p10148
atp10149
Rp10150
(dp10151
g13
g611
sbag3
(g4
g5
(lp10152
Vcool.
p10153
atp10154
Rp10155
(dp10156
g13
g32
sbag3
(g4
g5
(lp10157
g3
(g4
g5
(lp10158
VWe
p10159
atp10160
Rp10161
(dp10162
g13
VPRP
p10163
sbatp10164
Rp10165
(dp10166
g13
VNP
p10167
sbatp10168
Rp10169
(dp10170
g13
g58
sbatp10171
Rp10172
(dp10173
g13
g692
sbag3
(g4
g5
(lp10174
g3
(g4
g5
(lp10175
Vleft
p10176
atp10177
Rp10178
(dp10179
g13
g132
sbag3
(g4
g5
(lp10180
g3
(g4
g5
(lp10181
Vschool.
p10182
atp10183
Rp10184
(dp10185
g13
g32
sbag3
(g4
g5
(lp10186
g3
(g4
g5
(lp10187
VWe
p10188
atp10189
Rp10190
(dp10191
g13
VPRP
p10192
sbatp10193
Rp10194
(dp10195
g13
VNP
p10196
sbatp10197
Rp10198
(dp10199
g13
g154
sbatp10200
Rp10201
(dp10202
g13
g1374
sbag340
ag3
(g4
g5
(lp10203
g3
(g4
g5
(lp10204
Vlurk
p10205
atp10206
Rp10207
(dp10208
g13
g448
sbag3
(g4
g5
(lp10209
g3
(g4
g5
(lp10210
Vlate.
p10211
atp10212
Rp10213
(dp10214
g13
g32
sbag3
(g4
g5
(lp10215
g3
(g4
g5
(lp10216
VWe
p10217
atp10218
Rp10219
(dp10220
g13
VPRP
p10221
sbatp10222
Rp10223
(dp10224
g13
VNP
p10225
sbatp10226
Rp10227
(dp10228
g13
g154
sbatp10229
Rp10230
(dp10231
g13
g2829
sbag3
(g4
g5
(lp10232
g3
(g4
g5
(lp10233
g3
(g4
g5
(lp10234
Vstrike
p10235
atp10236
Rp10237
(dp10238
g13
VNN
p10239
sbatp10240
Rp10241
(dp10242
g13
VNP
p10243
sbag3
(g4
g5
(lp10244
g3
(g4
g5
(lp10245
Vstraight.
p10246
atp10247
Rp10248
(dp10249
g13
g32
sbag3
(g4
g5
(lp10250
g3
(g4
g5
(lp10251
VWe
p10252
atp10253
Rp10254
(dp10255
g13
VPRP
p10256
sbatp10257
Rp10258
(dp10259
g13
VNP
p10260
sbatp10261
Rp10262
(dp10263
g13
g58
sbatp10264
Rp10265
(dp10266
g13
g692
sbag340
ag3
(g4
g5
(lp10267
g3
(g4
g5
(lp10268
Vsing
p10269
atp10270
Rp10271
(dp10272
g13
g251
sbag3
(g4
g5
(lp10273
Vsin.
p10274
atp10275
Rp10276
(dp10277
g13
g32
sbag3
(g4
g5
(lp10278
g3
(g4
g5
(lp10279
VWe
p10280
atp10281
Rp10282
(dp10283
g13
VPRP
p10284
sbatp10285
Rp10286
(dp10287
g13
VNP
p10288
sbatp10289
Rp10290
(dp10291
g13
g154
sbag3
(g4
g5
(lp10292
g3
(g4
g5
(lp10293
Vthin
p10294
atp10295
Rp10296
(dp10297
g13
g448
sbag3
(g4
g5
(lp10298
g3
(g4
g5
(lp10299
Vgin.
p10300
atp10301
Rp10302
(dp10303
g13
g32
sbag3
(g4
g5
(lp10304
g3
(g4
g5
(lp10305
VWe
p10306
atp10307
Rp10308
(dp10309
g13
VPRP
p10310
sbatp10311
Rp10312
(dp10313
g13
VNP
p10314
sbatp10315
Rp10316
(dp10317
g13
g154
sbatp10318
Rp10319
(dp10320
g13
g2829
sbag340
ag3
(g4
g5
(lp10321
g3
(g4
g5
(lp10322
Vjazz
p10323
atp10324
Rp10325
(dp10326
g13
g448
sbag3
(g4
g5
(lp10327
g3
(g4
g5
(lp10328
VJune.
p10329
atp10330
Rp10331
(dp10332
g13
g32
sbag3
(g4
g5
(lp10333
g3
(g4
g5
(lp10334
VWe
p10335
atp10336
Rp10337
(dp10338
g13
VPRP
p10339
sbatp10340
Rp10341
(dp10342
g13
VNP
p10343
sbatp10344
Rp10345
(dp10346
g13
g154
sbatp10347
Rp10348
(dp10349
g13
g2829
sbag3
(g4
g5
(lp10350
g3
(g4
g5
(lp10351
g3
(g4
g5
(lp10352
Vdie
p10353
atp10354
Rp10355
(dp10356
g13
g32
sbag3
(g4
g5
(lp10357
g3
(g4
g5
(lp10358
Vsoon
p10359
atp10360
Rp10361
(dp10362
g13
VRB
p10363
sbatp10364
Rp10365
(dp10366
g13
VADVP
p10367
sbatp10368
Rp10369
(dp10370
g13
g58
sbag3
(g4
g5
(lp10371
g64
atp10372
Rp10373
(dp10374
g13
g68
sbatp10375
Rp10376
(dp10377
g13
g165
sbag340
asS'gb_poems/The_Crazy_Woman.txt'
p10378
(lp10379
g3
(g4
g5
(lp10380
g3
(g4
g5
(lp10381
g3
(g4
g5
(lp10382
g3
(g4
g5
(lp10383
g1023
atp10384
Rp10385
(dp10386
g13
VPRP
p10387
sbatp10388
Rp10389
(dp10390
g13
VNP
p10391
sbag3
(g4
g5
(lp10392
g3
(g4
g5
(lp10393
Vshall
p10394
atp10395
Rp10396
(dp10397
g13
g3711
sbag3
(g4
g5
(lp10398
Vnot
p10399
atp10400
Rp10401
(dp10402
g13
g611
sbag3
(g4
g5
(lp10403
Vsing
p10404
atp10405
Rp10406
(dp10407
g13
g251
sbag3
(g4
g5
(lp10408
g3
(g4
g5
(lp10409
g255
atp10410
Rp10411
(dp10412
g13
g104
sbag3
(g4
g5
(lp10413
VMay
p10414
atp10415
Rp10416
(dp10417
g13
g1049
sbag3
(g4
g5
(lp10418
Vsong
p10419
atp10420
Rp10421
(dp10422
g13
g110
sbatp10423
Rp10424
(dp10425
g13
g114
sbatp10426
Rp10427
(dp10428
g13
g58
sbatp10429
Rp10430
(dp10431
g13
g62
sbag3
(g4
g5
(lp10432
g64
atp10433
Rp10434
(dp10435
g13
g68
sbatp10436
Rp10437
(dp10438
g13
g72
sbag3
(g4
g5
(lp10439
g3
(g4
g5
(lp10440
g3
(g4
g5
(lp10441
g6586
atp10442
Rp10443
(dp10444
g13
g104
sbag3
(g4
g5
(lp10445
VMay
p10446
atp10447
Rp10448
(dp10449
g13
g1049
sbag3
(g4
g5
(lp10450
Vsong
p10451
atp10452
Rp10453
(dp10454
g13
g110
sbatp10455
Rp10456
(dp10457
g13
g114
sbag3
(g4
g5
(lp10458
g3
(g4
g5
(lp10459
Vshould
p10460
atp10461
Rp10462
(dp10463
g13
g3711
sbag3
(g4
g5
(lp10464
Vbe
p10465
atp10466
Rp10467
(dp10468
g13
g32
sbag3
(g4
g5
(lp10469
g3
(g4
g5
(lp10470
Vgay
p10471
atp10472
Rp10473
(dp10474
g13
VNN
p10475
sbatp10476
Rp10477
(dp10478
g13
VNP
p10479
sbatp10480
Rp10481
(dp10482
g13
g58
sbag3
(g4
g5
(lp10483
g64
atp10484
Rp10485
(dp10486
g13
g68
sbatp10487
Rp10488
(dp10489
g13
g165
sbag3
(g4
g5
(lp10490
g3
(g4
g5
(lp10491
g3
(g4
g5
(lp10492
Vill
p10493
atp10494
Rp10495
(dp10496
g13
VNN
p10497
sbatp10498
Rp10499
(dp10500
g13
VNP
p10501
sbag3
(g4
g5
(lp10502
Vwait
p10503
atp10504
Rp10505
(dp10506
g13
g32
sbag3
(g4
g5
(lp10507
g3
(g4
g5
(lp10508
Vuntil
p10509
atp10510
Rp10511
(dp10512
g13
g217
sbag3
(g4
g5
(lp10513
g3
(g4
g5
(lp10514
VNovember
p10515
atp10516
Rp10517
(dp10518
g13
VNNP
p10519
sbatp10520
Rp10521
(dp10522
g13
VNP
p10523
sbatp10524
Rp10525
(dp10526
g13
g235
sbatp10527
Rp10528
(dp10529
g13
g2649
sbag3
(g4
g5
(lp10530
g3
(g4
g5
(lp10531
Vand
p10532
atp10533
Rp10534
(dp10535
g13
g538
sbag3
(g4
g5
(lp10536
g3
(g4
g5
(lp10537
Vsing
p10538
atp10539
Rp10540
(dp10541
g13
g251
sbag3
(g4
g5
(lp10542
g3
(g4
g5
(lp10543
g3
(g4
g5
(lp10544
g255
atp10545
Rp10546
(dp10547
g13
g104
sbag3
(g4
g5
(lp10548
Vsong
p10549
atp10550
Rp10551
(dp10552
g13
g110
sbatp10553
Rp10554
(dp10555
g13
g114
sbag3
(g4
g5
(lp10556
g3
(g4
g5
(lp10557
Vof
p10558
atp10559
Rp10560
(dp10561
g13
g217
sbag3
(g4
g5
(lp10562
g3
(g4
g5
(lp10563
Vgray
p10564
atp10565
Rp10566
(dp10567
g13
VNN
p10568
sbatp10569
Rp10570
(dp10571
g13
VNP
p10572
sbatp10573
Rp10574
(dp10575
g13
g235
sbatp10576
Rp10577
(dp10578
g13
g114
sbatp10579
Rp10580
(dp10581
g13
g58
sbag3
(g4
g5
(lp10582
g64
atp10583
Rp10584
(dp10585
g13
g68
sbatp10586
Rp10587
(dp10588
g13
g165
sbag340
ag3
(g4
g5
(lp10589
g3
(g4
g5
(lp10590
g3
(g4
g5
(lp10591
Vill
p10592
atp10593
Rp10594
(dp10595
g13
VNN
p10596
sbatp10597
Rp10598
(dp10599
g13
VNP
p10600
sbag3
(g4
g5
(lp10601
Vwait
p10602
atp10603
Rp10604
(dp10605
g13
g32
sbag3
(g4
g5
(lp10606
g3
(g4
g5
(lp10607
Vuntil
p10608
atp10609
Rp10610
(dp10611
g13
g217
sbag3
(g4
g5
(lp10612
g3
(g4
g5
(lp10613
VNovember
p10614
atp10615
Rp10616
(dp10617
g13
VNNP
p10618
sbatp10619
Rp10620
(dp10621
g13
VNP
p10622
sbatp10623
Rp10624
(dp10625
g13
g235
sbatp10626
Rp10627
(dp10628
g13
g2649
sbag3
(g4
g5
(lp10629
g3
(g4
g5
(lp10630
Vthat
p10631
atp10632
Rp10633
(dp10634
g13
g217
sbag3
(g4
g5
(lp10635
g3
(g4
g5
(lp10636
g3
(g4
g5
(lp10637
Vis
p10638
atp10639
Rp10640
(dp10641
g13
g308
sbag3
(g4
g5
(lp10642
g3
(g4
g5
(lp10643
g3
(g4
g5
(lp10644
Vthe
p10645
atp10646
Rp10647
(dp10648
g13
g104
sbag3
(g4
g5
(lp10649
Vtime
p10650
atp10651
Rp10652
(dp10653
g13
g110
sbatp10654
Rp10655
(dp10656
g13
g114
sbag3
(g4
g5
(lp10657
g3
(g4
g5
(lp10658
Vfor
p10659
atp10660
Rp10661
(dp10662
g13
g217
sbag3
(g4
g5
(lp10663
g3
(g4
g5
(lp10664
Vme
p10665
atp10666
Rp10667
(dp10668
g13
VPRP
p10669
sbatp10670
Rp10671
(dp10672
g13
VNP
p10673
sbatp10674
Rp10675
(dp10676
g13
g235
sbatp10677
Rp10678
(dp10679
g13
g114
sbatp10680
Rp10681
(dp10682
g13
g58
sbag3
(g4
g5
(lp10683
g64
atp10684
Rp10685
(dp10686
g13
g68
sbatp10687
Rp10688
(dp10689
g13
g165
sbatp10690
Rp10691
(dp10692
g13
g631
sbag3
(g4
g5
(lp10693
g3
(g4
g5
(lp10694
Vill
p10695
atp10696
Rp10697
(dp10698
g13
g32
sbag3
(g4
g5
(lp10699
Vgo
p10700
atp10701
Rp10702
(dp10703
g13
g32
sbag3
(g4
g5
(lp10704
g3
(g4
g5
(lp10705
Vout
p10706
atp10707
Rp10708
(dp10709
g13
VRP
p10710
sbatp10711
Rp10712
(dp10713
g13
VPRT
p10714
sbag3
(g4
g5
(lp10715
g3
(g4
g5
(lp10716
Vin
p10717
atp10718
Rp10719
(dp10720
g13
g217
sbag3
(g4
g5
(lp10721
g3
(g4
g5
(lp10722
Vthe
p10723
atp10724
Rp10725
(dp10726
g13
g104
sbag3
(g4
g5
(lp10727
Vfrosty
p10728
atp10729
Rp10730
(dp10731
g13
g448
sbag3
(g4
g5
(lp10732
Vdark
p10733
atp10734
Rp10735
(dp10736
g13
g110
sbatp10737
Rp10738
(dp10739
g13
g114
sbatp10740
Rp10741
(dp10742
g13
g235
sbatp10743
Rp10744
(dp10745
g13
g5792
sbag3
(g4
g5
(lp10746
g3
(g4
g5
(lp10747
Vand
p10748
atp10749
Rp10750
(dp10751
g13
g538
sbag3
(g4
g5
(lp10752
g3
(g4
g5
(lp10753
Vsing
p10754
atp10755
Rp10756
(dp10757
g13
g251
sbag3
(g4
g5
(lp10758
g3
(g4
g5
(lp10759
Vmost
p10760
atp10761
Rp10762
(dp10763
g13
VRBS
p10764
sbag3
(g4
g5
(lp10765
Vterribly
p10766
atp10767
Rp10768
(dp10769
g13
g611
sbatp10770
Rp10771
(dp10772
g13
g2472
sbatp10773
Rp10774
(dp10775
g13
g58
sbag3
(g4
g5
(lp10776
g64
atp10777
Rp10778
(dp10779
g13
g68
sbatp10780
Rp10781
(dp10782
g13
g165
sbag340
ag3
(g4
g5
(lp10783
g3
(g4
g5
(lp10784
Vand
p10785
atp10786
Rp10787
(dp10788
g13
g538
sbag3
(g4
g5
(lp10789
g3
(g4
g5
(lp10790
Vall
p10791
atp10792
Rp10793
(dp10794
g13
g104
sbag3
(g4
g5
(lp10795
Vthe
p10796
atp10797
Rp10798
(dp10799
g13
g104
sbag3
(g4
g5
(lp10800
Vlittle
p10801
atp10802
Rp10803
(dp10804
g13
g448
sbag3
(g4
g5
(lp10805
Vpeople
p10806
atp10807
Rp10808
(dp10809
g13
g999
sbatp10810
Rp10811
(dp10812
g13
g114
sbatp10813
Rp10814
(dp10815
g13
g1231
sbag340
ag3
(g4
g5
(lp10816
g3
(g4
g5
(lp10817
g3
(g4
g5
(lp10818
Vthat
p10819
atp10820
Rp10821
(dp10822
g13
VWDT
p10823
sbatp10824
Rp10825
(dp10826
g13
VWHNP
p10827
sbag3
(g4
g5
(lp10828
g3
(g4
g5
(lp10829
Vis
p10830
atp10831
Rp10832
(dp10833
g13
g308
sbag3
(g4
g5
(lp10834
g3
(g4
g5
(lp10835
Vthe
p10836
atp10837
Rp10838
(dp10839
g13
g104
sbag3
(g4
g5
(lp10840
VCrazy
p10841
atp10842
Rp10843
(dp10844
g13
g1049
sbag3
(g4
g5
(lp10845
VWoman
p10846
atp10847
Rp10848
(dp10849
g13
g1049
sbatp10850
Rp10851
(dp10852
g13
g114
sbatp10853
Rp10854
(dp10855
g13
g154
sbatp10856
Rp10857
(dp10858
g13
g333
sbag3
(g4
g5
(lp10859
g3
(g4
g5
(lp10860
g3
(g4
g5
(lp10861
Vwho
p10862
atp10863
Rp10864
(dp10865
g13
VWP
p10866
sbatp10867
Rp10868
(dp10869
g13
VWHNP
p10870
sbag3
(g4
g5
(lp10871
g3
(g4
g5
(lp10872
Vwould
p10873
atp10874
Rp10875
(dp10876
g13
g3711
sbag3
(g4
g5
(lp10877
g3
(g4
g5
(lp10878
Vnot
p10879
atp10880
Rp10881
(dp10882
g13
g611
sbag3
(g4
g5
(lp10883
Vsing
p10884
atp10885
Rp10886
(dp10887
g13
g251
sbag3
(g4
g5
(lp10888
g3
(g4
g5
(lp10889
Vin
p10890
atp10891
Rp10892
(dp10893
g13
g217
sbag3
(g4
g5
(lp10894
g3
(g4
g5
(lp10895
VMay
p10896
atp10897
Rp10898
(dp10899
g13
VNNP
p10900
sbatp10901
Rp10902
(dp10903
g13
VNP
p10904
sbatp10905
Rp10906
(dp10907
g13
g235
sbatp10908
Rp10909
(dp10910
g13
g58
sbatp10911
Rp10912
(dp10913
g13
g8257
sbag3
(g4
g5
(lp10914
g64
atp10915
Rp10916
(dp10917
g13
g68
sbatp10918
Rp10919
(dp10920
g13
g72
sbag340
asS'gb_poems/A_Sunset_of_the_City.txt'
p10921
(lp10922
g3
(g4
g5
(lp10923
g3
(g4
g5
(lp10924
g3
(g4
g5
(lp10925
Valready
p10926
atp10927
Rp10928
(dp10929
g13
VRB
p10930
sbatp10931
Rp10932
(dp10933
g13
VADVP
p10934
sbag3
(g4
g5
(lp10935
g3
(g4
g5
(lp10936
g3
(g4
g5
(lp10937
g1023
atp10938
Rp10939
(dp10940
g13
VPRP
p10941
sbatp10942
Rp10943
(dp10944
g13
VNP
p10945
sbag3
(g4
g5
(lp10946
g3
(g4
g5
(lp10947
Vam
p10948
atp10949
Rp10950
(dp10951
g13
g32
sbag3
(g4
g5
(lp10952
g3
(g4
g5
(lp10953
Vno
p10954
atp10955
Rp10956
(dp10957
g13
g611
sbag3
(g4
g5
(lp10958
Vlonger
p10959
atp10960
Rp10961
(dp10962
g13
VJJR
p10963
sbatp10964
Rp10965
(dp10966
g13
g705
sbatp10967
Rp10968
(dp10969
g13
g58
sbatp10970
Rp10971
(dp10972
g13
g165
sbag3
(g4
g5
(lp10973
g3
(g4
g5
(lp10974
g3
(g4
g5
(lp10975
Vlooked
p10976
atp10977
Rp10978
(dp10979
g13
g132
sbag3
(g4
g5
(lp10980
g3
(g4
g5
(lp10981
Vat
p10982
atp10983
Rp10984
(dp10985
g13
g217
sbag3
(g4
g5
(lp10986
Vwith
p10987
atp10988
Rp10989
(dp10990
g13
g217
sbag3
(g4
g5
(lp10991
g3
(g4
g5
(lp10992
Vlechery
p10993
atp10994
Rp10995
(dp10996
g13
g448
sbag3
(g4
g5
(lp10997
Vor
p10998
atp10999
Rp11000
(dp11001
g13
g538
sbag3
(g4
g5
(lp11002
g3
(g4
g5
(lp11003
Vlove
p11004
atp11005
Rp11006
(dp11007
g13
VNN
p11008
sbatp11009
Rp11010
(dp11011
g13
VNP
p11012
sbatp11013
Rp11014
(dp11015
g13
g114
sbatp11016
Rp11017
(dp11018
g13
g235
sbatp11019
Rp11020
(dp11021
g13
g58
sbag3
(g4
g5
(lp11022
g64
atp11023
Rp11024
(dp11025
g13
g68
sbatp11026
Rp11027
(dp11028
g13
g165
sbatp11029
Rp11030
(dp11031
g13
g1093
sbag340
ag3
(g4
g5
(lp11032
g3
(g4
g5
(lp11033
g3
(g4
g5
(lp11034
Vare
p11035
atp11036
Rp11037
(dp11038
g13
g14
sbag3
(g4
g5
(lp11039
g3
(g4
g5
(lp11040
g3
(g4
g5
(lp11041
Vgone
p11042
atp11043
Rp11044
(dp11045
g13
VNNS
p11046
sbatp11047
Rp11048
(dp11049
g13
VNP
p11050
sbag3
(g4
g5
(lp11051
g3
(g4
g5
(lp11052
Vfrom
p11053
atp11054
Rp11055
(dp11056
g13
g217
sbag3
(g4
g5
(lp11057
g3
(g4
g5
(lp11058
Vthe
p11059
atp11060
Rp11061
(dp11062
g13
g104
sbag3
(g4
g5
(lp11063
Vhouse
p11064
atp11065
Rp11066
(dp11067
g13
g110
sbatp11068
Rp11069
(dp11070
g13
g114
sbatp11071
Rp11072
(dp11073
g13
g235
sbatp11074
Rp11075
(dp11076
g13
g114
sbatp11077
Rp11078
(dp11079
g13
g62
sbag3
(g4
g5
(lp11080
g64
atp11081
Rp11082
(dp11083
g13
g68
sbatp11084
Rp11085
(dp11086
g13
g72
sbag3
(g4
g5
(lp11087
g3
(g4
g5
(lp11088
g3
(g4
g5
(lp11089
Vmy
p11090
atp11091
Rp11092
(dp11093
g13
g970
sbag3
(g4
g5
(lp11094
Vhusband
p11095
atp11096
Rp11097
(dp11098
g13
g110
sbatp11099
Rp11100
(dp11101
g13
g114
sbag3
(g4
g5
(lp11102
g3
(g4
g5
(lp11103
Vand
p11104
atp11105
Rp11106
(dp11107
g13
g538
sbag3
(g4
g5
(lp11108
Vlovers
p11109
atp11110
Rp11111
(dp11112
g13
g32
sbag3
(g4
g5
(lp11113
Vare
p11114
atp11115
Rp11116
(dp11117
g13
g14
sbag3
(g4
g5
(lp11118
Vpleasant
p11119
atp11120
Rp11121
(dp11122
g13
g32
sbag3
(g4
g5
(lp11123
g3
(g4
g5
(lp11124
Vor
p11125
atp11126
Rp11127
(dp11128
g13
g538
sbag3
(g4
g5
(lp11129
Vsomewhat
p11130
atp11131
Rp11132
(dp11133
g13
g448
sbag3
(g4
g5
(lp11134
Vpolite
p11135
atp11136
Rp11137
(dp11138
g13
g110
sbatp11139
Rp11140
(dp11141
g13
g114
sbatp11142
Rp11143
(dp11144
g13
g58
sbatp11145
Rp11146
(dp11147
g13
g3384
sbag3
(g4
g5
(lp11148
g3
(g4
g5
(lp11149
g3
(g4
g5
(lp11150
Vand
p11151
atp11152
Rp11153
(dp11154
g13
g538
sbag3
(g4
g5
(lp11155
Vnight
p11156
atp11157
Rp11158
(dp11159
g13
g110
sbatp11160
Rp11161
(dp11162
g13
g9186
sbag3
(g4
g5
(lp11163
g3
(g4
g5
(lp11164
Vis
p11165
atp11166
Rp11167
(dp11168
g13
g308
sbag3
(g4
g5
(lp11169
g3
(g4
g5
(lp11170
Vnight
p11171
atp11172
Rp11173
(dp11174
g13
VNN
p11175
sbatp11176
Rp11177
(dp11178
g13
VNP
p11179
sbatp11180
Rp11181
(dp11182
g13
g62
sbag3
(g4
g5
(lp11183
g64
atp11184
Rp11185
(dp11186
g13
g68
sbatp11187
Rp11188
(dp11189
g13
g72
sbag340
ag340
ag3
(g4
g5
(lp11190
g3
(g4
g5
(lp11191
g3
(g4
g5
(lp11192
Vthe
p11193
atp11194
Rp11195
(dp11196
g13
g104
sbag3
(g4
g5
(lp11197
Vgenuine
p11198
atp11199
Rp11200
(dp11201
g13
g448
sbag3
(g4
g5
(lp11202
Vthing
p11203
atp11204
Rp11205
(dp11206
g13
g110
sbatp11207
Rp11208
(dp11209
g13
g114
sbag3
(g4
g5
(lp11210
g64
atp11211
Rp11212
(dp11213
g13
g68
sbatp11214
Rp11215
(dp11216
g13
g2073
sbag3
(g4
g5
(lp11217
g3
(g4
g5
(lp11218
g3
(g4
g5
(lp11219
g1023
atp11220
Rp11221
(dp11222
g13
VPRP
p11223
sbatp11224
Rp11225
(dp11226
g13
VNP
p11227
sbag3
(g4
g5
(lp11228
g3
(g4
g5
(lp11229
Vam
p11230
atp11231
Rp11232
(dp11233
g13
g32
sbag3
(g4
g5
(lp11234
g3
(g4
g5
(lp11235
g3
(g4
g5
(lp11236
g3
(g4
g5
(lp11237
Vnot
p11238
atp11239
Rp11240
(dp11241
g13
g611
sbag3
(g4
g5
(lp11242
Vdeceived
p11243
atp11244
Rp11245
(dp11246
g13
g132
sbatp11247
Rp11248
(dp11249
g13
g705
sbag3
(g4
g5
(lp11250
g3
(g4
g5
(lp11251
g811
atp11252
Rp11253
(dp11254
g13
g815
sbag3
(g4
g5
(lp11255
g3
(g4
g5
(lp11256
g1023
atp11257
Rp11258
(dp11259
g13
VPRP
p11260
sbatp11261
Rp11262
(dp11263
g13
VNP
p11264
sbag3
(g4
g5
(lp11265
g3
(g4
g5
(lp11266
Vdo
p11267
atp11268
Rp11269
(dp11270
g13
g14
sbag3
(g4
g5
(lp11271
Vnot
p11272
atp11273
Rp11274
(dp11275
g13
g611
sbag3
(g4
g5
(lp11276
Vthink
p11277
atp11278
Rp11279
(dp11280
g13
g14
sbag3
(g4
g5
(lp11281
g3
(g4
g5
(lp11282
g3
(g4
g5
(lp11283
Vit
p11284
atp11285
Rp11286
(dp11287
g13
VPRP
p11288
sbatp11289
Rp11290
(dp11291
g13
VNP
p11292
sbag3
(g4
g5
(lp11293
g3
(g4
g5
(lp11294
Vis
p11295
atp11296
Rp11297
(dp11298
g13
g308
sbag3
(g4
g5
(lp11299
g3
(g4
g5
(lp11300
Vstill
p11301
atp11302
Rp11303
(dp11304
g13
VRB
p11305
sbatp11306
Rp11307
(dp11308
g13
VADVP
p11309
sbatp11310
Rp11311
(dp11312
g13
g58
sbatp11313
Rp11314
(dp11315
g13
g692
sbatp11316
Rp11317
(dp11318
g13
g58
sbatp11319
Rp11320
(dp11321
g13
g692
sbatp11322
Rp11323
(dp11324
g13
g705
sbag3
(g4
g5
(lp11325
Vsummer
p11326
atp11327
Rp11328
(dp11329
g13
g110
sbatp11330
Rp11331
(dp11332
g13
g114
sbatp11333
Rp11334
(dp11335
g13
g58
sbatp11336
Rp11337
(dp11338
g13
g692
sbag3
(g4
g5
(lp11339
g3
(g4
g5
(lp11340
Vbecause
p11341
atp11342
Rp11343
(dp11344
g13
g217
sbag3
(g4
g5
(lp11345
g3
(g4
g5
(lp11346
g3
(g4
g5
(lp11347
Vsun
p11348
atp11349
Rp11350
(dp11351
g13
g110
sbag3
(g4
g5
(lp11352
Vstays
p11353
atp11354
Rp11355
(dp11356
g13
g110
sbatp11357
Rp11358
(dp11359
g13
g114
sbag3
(g4
g5
(lp11360
Vand
p11361
atp11362
Rp11363
(dp11364
g13
g538
sbag3
(g4
g5
(lp11365
g3
(g4
g5
(lp11366
Vbirds
p11367
atp11368
Rp11369
(dp11370
g13
VNNS
p11371
sbatp11372
Rp11373
(dp11374
g13
VNP
p11375
sbag3
(g4
g5
(lp11376
g3
(g4
g5
(lp11377
Vcontinue
p11378
atp11379
Rp11380
(dp11381
g13
g32
sbag3
(g4
g5
(lp11382
g3
(g4
g5
(lp11383
Vto
p11384
atp11385
Rp11386
(dp11387
g13
g139
sbag3
(g4
g5
(lp11388
g3
(g4
g5
(lp11389
Vsing
p11390
atp11391
Rp11392
(dp11393
g13
VNN
p11394
sbatp11395
Rp11396
(dp11397
g13
VNP
p11398
sbatp11399
Rp11400
(dp11401
g13
g235
sbatp11402
Rp11403
(dp11404
g13
g58
sbag3
(g4
g5
(lp11405
g64
atp11406
Rp11407
(dp11408
g13
g68
sbatp11409
Rp11410
(dp11411
g13
g165
sbatp11412
Rp11413
(dp11414
g13
g631
sbag340
ag340
ag340
ag3
(g4
g5
(lp11415
g3
(g4
g5
(lp11416
g3
(g4
g5
(lp11417
g3
(g4
g5
(lp11418
Vthe
p11419
atp11420
Rp11421
(dp11422
g13
g104
sbag3
(g4
g5
(lp11423
Vgrasses
p11424
atp11425
Rp11426
(dp11427
g13
g110
sbatp11428
Rp11429
(dp11430
g13
g114
sbag3
(g4
g5
(lp11431
g3
(g4
g5
(lp11432
Vforgetting
p11433
atp11434
Rp11435
(dp11436
g13
g251
sbag3
(g4
g5
(lp11437
g3
(g4
g5
(lp11438
Vtheir
p11439
atp11440
Rp11441
(dp11442
g13
g970
sbag3
(g4
g5
(lp11443
Vblaze
p11444
atp11445
Rp11446
(dp11447
g13
g110
sbatp11448
Rp11449
(dp11450
g13
g114
sbatp11451
Rp11452
(dp11453
g13
g58
sbatp11454
Rp11455
(dp11456
g13
g165
sbag3
(g4
g5
(lp11457
g3
(g4
g5
(lp11458
Vand
p11459
atp11460
Rp11461
(dp11462
g13
g538
sbag3
(g4
g5
(lp11463
g3
(g4
g5
(lp11464
Vconsenting
p11465
atp11466
Rp11467
(dp11468
g13
g251
sbag3
(g4
g5
(lp11469
g3
(g4
g5
(lp11470
Vto
p11471
atp11472
Rp11473
(dp11474
g13
g139
sbag3
(g4
g5
(lp11475
g3
(g4
g5
(lp11476
Vbrown
p11477
atp11478
Rp11479
(dp11480
g13
VVB
p11481
sbatp11482
Rp11483
(dp11484
g13
VVP
p11485
sbatp11486
Rp11487
(dp11488
g13
g154
sbatp11489
Rp11490
(dp11491
g13
g58
sbag3
(g4
g5
(lp11492
g64
atp11493
Rp11494
(dp11495
g13
g68
sbatp11496
Rp11497
(dp11498
g13
g165
sbatp11499
Rp11500
(dp11501
g13
g1093
sbag340
ag3
(g4
g5
(lp11502
g3
(g4
g5
(lp11503
g3
(g4
g5
(lp11504
Vit
p11505
atp11506
Rp11507
(dp11508
g13
VPRP
p11509
sbatp11510
Rp11511
(dp11512
g13
VNP
p11513
sbag3
(g4
g5
(lp11514
g3
(g4
g5
(lp11515
Vis
p11516
atp11517
Rp11518
(dp11519
g13
g308
sbag3
(g4
g5
(lp11520
g3
(g4
g5
(lp11521
g3
(g4
g5
(lp11522
g255
atp11523
Rp11524
(dp11525
g13
g104
sbag3
(g4
g5
(lp11526
Vreal
p11527
atp11528
Rp11529
(dp11530
g13
g448
sbag3
(g4
g5
(lp11531
Vchill
p11532
atp11533
Rp11534
(dp11535
g13
g110
sbatp11536
Rp11537
(dp11538
g13
g114
sbag3
(g4
g5
(lp11539
g3
(g4
g5
(lp11540
Vout.
p11541
atp11542
Rp11543
(dp11544
g13
g32
sbag3
(g4
g5
(lp11545
g3
(g4
g5
(lp11546
g3
(g4
g5
(lp11547
VThe
p11548
atp11549
Rp11550
(dp11551
g13
g104
sbag3
(g4
g5
(lp11552
Vfall
p11553
atp11554
Rp11555
(dp11556
g13
g110
sbatp11557
Rp11558
(dp11559
g13
g114
sbag3
(g4
g5
(lp11560
Vcrisp
p11561
atp11562
Rp11563
(dp11564
g13
g110
sbag3
(g4
g5
(lp11565
Vcomes
p11566
atp11567
Rp11568
(dp11569
g13
g308
sbatp11570
Rp11571
(dp11572
g13
g114
sbatp11573
Rp11574
(dp11575
g13
g58
sbatp11576
Rp11577
(dp11578
g13
g692
sbatp11579
Rp11580
(dp11581
g13
g58
sbatp11582
Rp11583
(dp11584
g13
g692
sbag3
(g4
g5
(lp11585
g3
(g4
g5
(lp11586
g3
(g4
g5
(lp11587
g3
(g4
g5
(lp11588
g1023
atp11589
Rp11590
(dp11591
g13
VPRP
p11592
sbatp11593
Rp11594
(dp11595
g13
VNP
p11596
sbag3
(g4
g5
(lp11597
g3
(g4
g5
(lp11598
Vam
p11599
atp11600
Rp11601
(dp11602
g13
g448
sbag3
(g4
g5
(lp11603
Vaware
p11604
atp11605
Rp11606
(dp11607
g13
g110
sbatp11608
Rp11609
(dp11610
g13
g114
sbag3
(g4
g5
(lp11611
g3
(g4
g5
(lp11612
Vthere
p11613
atp11614
Rp11615
(dp11616
g13
VEX
p11617
sbatp11618
Rp11619
(dp11620
g13
VNP
p11621
sbag3
(g4
g5
(lp11622
g3
(g4
g5
(lp11623
Vis
p11624
atp11625
Rp11626
(dp11627
g13
g308
sbag3
(g4
g5
(lp11628
Vwinter
p11629
atp11630
Rp11631
(dp11632
g13
g32
sbag3
(g4
g5
(lp11633
g3
(g4
g5
(lp11634
Vto
p11635
atp11636
Rp11637
(dp11638
g13
VTO
p11639
sbatp11640
Rp11641
(dp11642
g13
VPP
p11643
sbatp11644
Rp11645
(dp11646
g13
g58
sbatp11647
Rp11648
(dp11649
g13
g165
sbag3
(g4
g5
(lp11650
g3
(g4
g5
(lp11651
g3
(g4
g5
(lp11652
Vheed
p11653
atp11654
Rp11655
(dp11656
g13
VVBD
p11657
sbatp11658
Rp11659
(dp11660
g13
VVP
p11661
sbag3
(g4
g5
(lp11662
g64
atp11663
Rp11664
(dp11665
g13
g68
sbatp11666
Rp11667
(dp11668
g13
g165
sbatp11669
Rp11670
(dp11671
g13
g1093
sbag3
(g4
g5
(lp11672
g3
(g4
g5
(lp11673
g3
(g4
g5
(lp11674
Vthere
p11675
atp11676
Rp11677
(dp11678
g13
VEX
p11679
sbatp11680
Rp11681
(dp11682
g13
VNP
p11683
sbag3
(g4
g5
(lp11684
g3
(g4
g5
(lp11685
Vis
p11686
atp11687
Rp11688
(dp11689
g13
g308
sbag3
(g4
g5
(lp11690
g3
(g4
g5
(lp11691
Vno
p11692
atp11693
Rp11694
(dp11695
g13
g104
sbag3
(g4
g5
(lp11696
Vwarm
p11697
atp11698
Rp11699
(dp11700
g13
g448
sbag3
(g4
g5
(lp11701
Vhouse
p11702
atp11703
Rp11704
(dp11705
g13
g110
sbatp11706
Rp11707
(dp11708
g13
g114
sbatp11709
Rp11710
(dp11711
g13
g58
sbatp11712
Rp11713
(dp11714
g13
g692
sbag3
(g4
g5
(lp11715
g3
(g4
g5
(lp11716
Vthat
p11717
atp11718
Rp11719
(dp11720
g13
g217
sbag3
(g4
g5
(lp11721
g3
(g4
g5
(lp11722
g3
(g4
g5
(lp11723
Vis
p11724
atp11725
Rp11726
(dp11727
g13
g308
sbag3
(g4
g5
(lp11728
Vfitted
p11729
atp11730
Rp11731
(dp11732
g13
g132
sbag3
(g4
g5
(lp11733
g3
(g4
g5
(lp11734
Vwith
p11735
atp11736
Rp11737
(dp11738
g13
g217
sbag3
(g4
g5
(lp11739
g3
(g4
g5
(lp11740
Vmy
p11741
atp11742
Rp11743
(dp11744
g13
g970
sbag3
(g4
g5
(lp11745
Vneed
p11746
atp11747
Rp11748
(dp11749
g13
g110
sbatp11750
Rp11751
(dp11752
g13
g114
sbatp11753
Rp11754
(dp11755
g13
g235
sbatp11756
Rp11757
(dp11758
g13
g58
sbag3
(g4
g5
(lp11759
g64
atp11760
Rp11761
(dp11762
g13
g68
sbatp11763
Rp11764
(dp11765
g13
g165
sbatp11766
Rp11767
(dp11768
g13
g631
sbag340
ag3
(g4
g5
(lp11769
g3
(g4
g5
(lp11770
g3
(g4
g5
(lp11771
g1023
atp11772
Rp11773
(dp11774
g13
VPRP
p11775
sbatp11776
Rp11777
(dp11778
g13
VNP
p11779
sbag3
(g4
g5
(lp11780
g3
(g4
g5
(lp11781
Vam
p11782
atp11783
Rp11784
(dp11785
g13
g32
sbag3
(g4
g5
(lp11786
g3
(g4
g5
(lp11787
Vcold
p11788
atp11789
Rp11790
(dp11791
g13
g448
sbag3
(g4
g5
(lp11792
g3
(g4
g5
(lp11793
Vin
p11794
atp11795
Rp11796
(dp11797
g13
g217
sbag3
(g4
g5
(lp11798
g3
(g4
g5
(lp11799
g3
(g4
g5
(lp11800
Vthis
p11801
atp11802
Rp11803
(dp11804
g13
g104
sbag3
(g4
g5
(lp11805
Vcold
p11806
atp11807
Rp11808
(dp11809
g13
g448
sbag3
(g4
g5
(lp11810
Vhouse
p11811
atp11812
Rp11813
(dp11814
g13
g110
sbatp11815
Rp11816
(dp11817
g13
g114
sbag3
(g4
g5
(lp11818
Vthis
p11819
atp11820
Rp11821
(dp11822
g13
g104
sbag3
(g4
g5
(lp11823
Vhouse
p11824
atp11825
Rp11826
(dp11827
g13
g110
sbatp11828
Rp11829
(dp11830
g13
g114
sbatp11831
Rp11832
(dp11833
g13
g235
sbatp11834
Rp11835
(dp11836
g13
g705
sbatp11837
Rp11838
(dp11839
g13
g58
sbatp11840
Rp11841
(dp11842
g13
g692
sbag3
(g4
g5
(lp11843
g3
(g4
g5
(lp11844
g3
(g4
g5
(lp11845
Vwhose
p11846
atp11847
Rp11848
(dp11849
g13
g9177
sbag3
(g4
g5
(lp11850
g3
(g4
g5
(lp11851
Vwashed
p11852
atp11853
Rp11854
(dp11855
g13
g448
sbag3
(g4
g5
(lp11856
Vechoes
p11857
atp11858
Rp11859
(dp11860
g13
g110
sbatp11861
Rp11862
(dp11863
g13
g114
sbatp11864
Rp11865
(dp11866
g13
g9186
sbag3
(g4
g5
(lp11867
g3
(g4
g5
(lp11868
Vare
p11869
atp11870
Rp11871
(dp11872
g13
g14
sbag3
(g4
g5
(lp11873
Vtremulous
p11874
atp11875
Rp11876
(dp11877
g13
g308
sbag3
(g4
g5
(lp11878
g3
(g4
g5
(lp11879
g3
(g4
g5
(lp11880
Vdown
p11881
atp11882
Rp11883
(dp11884
g13
g611
sbag3
(g4
g5
(lp11885
Vlost
p11886
atp11887
Rp11888
(dp11889
g13
g132
sbatp11890
Rp11891
(dp11892
g13
g705
sbag3
(g4
g5
(lp11893
Vhalls
p11894
atp11895
Rp11896
(dp11897
g13
g110
sbatp11898
Rp11899
(dp11900
g13
g114
sbatp11901
Rp11902
(dp11903
g13
g62
sbag3
(g4
g5
(lp11904
g64
atp11905
Rp11906
(dp11907
g13
g68
sbatp11908
Rp11909
(dp11910
g13
g72
sbag3
(g4
g5
(lp11911
g3
(g4
g5
(lp11912
g3
(g4
g5
(lp11913
g3
(g4
g5
(lp11914
g1023
atp11915
Rp11916
(dp11917
g13
VPRP
p11918
sbatp11919
Rp11920
(dp11921
g13
VNP
p11922
sbag3
(g4
g5
(lp11923
g3
(g4
g5
(lp11924
Vam
p11925
atp11926
Rp11927
(dp11928
g13
g32
sbag3
(g4
g5
(lp11929
g3
(g4
g5
(lp11930
g255
atp11931
Rp11932
(dp11933
g13
g104
sbag3
(g4
g5
(lp11934
Vwoman
p11935
atp11936
Rp11937
(dp11938
g13
g110
sbatp11939
Rp11940
(dp11941
g13
g114
sbatp11942
Rp11943
(dp11944
g13
g58
sbatp11945
Rp11946
(dp11947
g13
g165
sbag3
(g4
g5
(lp11948
g811
atp11949
Rp11950
(dp11951
g13
g815
sbag3
(g4
g5
(lp11952
g3
(g4
g5
(lp11953
Vand
p11954
atp11955
Rp11956
(dp11957
g13
g538
sbag3
(g4
g5
(lp11958
g3
(g4
g5
(lp11959
Vdusty
p11960
atp11961
Rp11962
(dp11963
g13
g32
sbag3
(g4
g5
(lp11964
g3
(g4
g5
(lp11965
g811
atp11966
Rp11967
(dp11968
g13
g815
sbag3
(g4
g5
(lp11969
g3
(g4
g5
(lp11970
Vstanding
p11971
atp11972
Rp11973
(dp11974
g13
VNN
p11975
sbatp11976
Rp11977
(dp11978
g13
VNP
p11979
sbag3
(g4
g5
(lp11980
g3
(g4
g5
(lp11981
Vamong
p11982
atp11983
Rp11984
(dp11985
g13
g217
sbag3
(g4
g5
(lp11986
g3
(g4
g5
(lp11987
Vnew
p11988
atp11989
Rp11990
(dp11991
g13
g448
sbag3
(g4
g5
(lp11992
Vaffairs
p11993
atp11994
Rp11995
(dp11996
g13
g999
sbatp11997
Rp11998
(dp11999
g13
g114
sbatp12000
Rp12001
(dp12002
g13
g235
sbatp12003
Rp12004
(dp12005
g13
g114
sbatp12006
Rp12007
(dp12008
g13
g58
sbag3
(g4
g5
(lp12009
g64
atp12010
Rp12011
(dp12012
g13
g68
sbatp12013
Rp12014
(dp12015
g13
g165
sbatp12016
Rp12017
(dp12018
g13
g1331
sbag3
(g4
g5
(lp12019
g3
(g4
g5
(lp12020
g3
(g4
g5
(lp12021
g1023
atp12022
Rp12023
(dp12024
g13
VPRP
p12025
sbatp12026
Rp12027
(dp12028
g13
VNP
p12029
sbag3
(g4
g5
(lp12030
g3
(g4
g5
(lp12031
Vam
p12032
atp12033
Rp12034
(dp12035
g13
g32
sbag3
(g4
g5
(lp12036
g3
(g4
g5
(lp12037
g3
(g4
g5
(lp12038
g255
atp12039
Rp12040
(dp12041
g13
g104
sbag3
(g4
g5
(lp12042
Vwoman
p12043
atp12044
Rp12045
(dp12046
g13
g110
sbatp12047
Rp12048
(dp12049
g13
g114
sbag3
(g4
g5
(lp12050
g3
(g4
g5
(lp12051
g3
(g4
g5
(lp12052
Vwho
p12053
atp12054
Rp12055
(dp12056
g13
VWP
p12057
sbatp12058
Rp12059
(dp12060
g13
VWHNP
p12061
sbag3
(g4
g5
(lp12062
g3
(g4
g5
(lp12063
g3
(g4
g5
(lp12064
Vhurries
p12065
atp12066
Rp12067
(dp12068
g13
g32
sbag3
(g4
g5
(lp12069
g3
(g4
g5
(lp12070
Vthrough
p12071
atp12072
Rp12073
(dp12074
g13
g217
sbag3
(g4
g5
(lp12075
g3
(g4
g5
(lp12076
Vher
p12077
atp12078
Rp12079
(dp12080
g13
g970
sbag3
(g4
g5
(lp12081
Vprayers
p12082
atp12083
Rp12084
(dp12085
g13
g110
sbatp12086
Rp12087
(dp12088
g13
g114
sbatp12089
Rp12090
(dp12091
g13
g235
sbatp12092
Rp12093
(dp12094
g13
g58
sbag3
(g4
g5
(lp12095
g64
atp12096
Rp12097
(dp12098
g13
g68
sbatp12099
Rp12100
(dp12101
g13
g165
sbatp12102
Rp12103
(dp12104
g13
g333
sbatp12105
Rp12106
(dp12107
g13
g114
sbatp12108
Rp12109
(dp12110
g13
g58
sbatp12111
Rp12112
(dp12113
g13
g692
sbag340
ag340
ag3
(g4
g5
(lp12114
g3
(g4
g5
(lp12115
Vdesert
p12116
atp12117
Rp12118
(dp12119
g13
g110
sbag3
(g4
g5
(lp12120
Vand
p12121
atp12122
Rp12123
(dp12124
g13
g538
sbag3
(g4
g5
(lp12125
g3
(g4
g5
(lp12126
Vmy
p12127
atp12128
Rp12129
(dp12130
g13
g970
sbag3
(g4
g5
(lp12131
Vdear
p12132
atp12133
Rp12134
(dp12135
g13
g448
sbag3
(g4
g5
(lp12136
Vrelief
p12137
atp12138
Rp12139
(dp12140
g13
g110
sbatp12141
Rp12142
(dp12143
g13
g114
sbatp12144
Rp12145
(dp12146
g13
g1231
sbag340
ag3
(g4
g5
(lp12147
g3
(g4
g5
(lp12148
g3
(g4
g5
(lp12149
Vand
p12150
atp12151
Rp12152
(dp12153
g13
g538
sbag3
(g4
g5
(lp12154
Vsmall
p12155
atp12156
Rp12157
(dp12158
g13
g448
sbag3
(g4
g5
(lp12159
Vcommunion
p12160
atp12161
Rp12162
(dp12163
g13
g448
sbag3
(g4
g5
(lp12164
g3
(g4
g5
(lp12165
Vwith
p12166
atp12167
Rp12168
(dp12169
g13
g217
sbag3
(g4
g5
(lp12170
g3
(g4
g5
(lp12171
Vthe
p12172
atp12173
Rp12174
(dp12175
g13
g104
sbag3
(g4
g5
(lp12176
Vmaster
p12177
atp12178
Rp12179
(dp12180
g13
g448
sbag3
(g4
g5
(lp12181
Vshore
p12182
atp12183
Rp12184
(dp12185
g13
g110
sbatp12186
Rp12187
(dp12188
g13
g114
sbatp12189
Rp12190
(dp12191
g13
g235
sbatp12192
Rp12193
(dp12194
g13
g705
sbag3
(g4
g5
(lp12195
g64
atp12196
Rp12197
(dp12198
g13
g68
sbatp12199
Rp12200
(dp12201
g13
g713
sbag340
ag3
(g4
g5
(lp12202
g3
(g4
g5
(lp12203
Vconsult
p12204
atp12205
Rp12206
(dp12207
g13
g308
sbag3
(g4
g5
(lp12208
g3
(g4
g5
(lp12209
g3
(g4
g5
(lp12210
g3
(g4
g5
(lp12211
g255
atp12212
Rp12213
(dp12214
g13
g104
sbag3
(g4
g5
(lp12215
Vdual
p12216
atp12217
Rp12218
(dp12219
g13
g110
sbatp12220
Rp12221
(dp12222
g13
g114
sbag3
(g4
g5
(lp12223
Vdilemma.
p12224
atp12225
Rp12226
(dp12227
g13
g1049
sbag3
(g4
g5
(lp12228
VWhether
p12229
atp12230
Rp12231
(dp12232
g13
g1049
sbatp12233
Rp12234
(dp12235
g13
g114
sbag3
(g4
g5
(lp12236
g3
(g4
g5
(lp12237
Vto
p12238
atp12239
Rp12240
(dp12241
g13
g139
sbag3
(g4
g5
(lp12242
Vdry
p12243
atp12244
Rp12245
(dp12246
g13
g448
sbatp12247
Rp12248
(dp12249
g13
g235
sbatp12250
Rp12251
(dp12252
g13
g114
sbatp12253
Rp12254
(dp12255
g13
VVP+SQ
p12256
sbag3
(g4
g5
(lp12257
g3
(g4
g5
(lp12258
Vin
p12259
atp12260
Rp12261
(dp12262
g13
g217
sbag3
(g4
g5
(lp12263
g3
(g4
g5
(lp12264
g3
(g4
g5
(lp12265
Vhumming
p12266
atp12267
Rp12268
(dp12269
g13
g251
sbag3
(g4
g5
(lp12270
Vpallor
p12271
atp12272
Rp12273
(dp12274
g13
g32
sbag3
(g4
g5
(lp12275
g3
(g4
g5
(lp12276
Vor
p12277
atp12278
Rp12279
(dp12280
g13
g538
sbag3
(g4
g5
(lp12281
Vto
p12282
atp12283
Rp12284
(dp12285
g13
g139
sbag3
(g4
g5
(lp12286
g3
(g4
g5
(lp12287
Vleap
p12288
atp12289
Rp12290
(dp12291
g13
g32
sbag3
(g4
g5
(lp12292
Vand
p12293
atp12294
Rp12295
(dp12296
g13
g538
sbag3
(g4
g5
(lp12297
g3
(g4
g5
(lp12298
Vdie
p12299
atp12300
Rp12301
(dp12302
g13
VVB
p12303
sbatp12304
Rp12305
(dp12306
g13
VVP
p12307
sbatp12308
Rp12309
(dp12310
g13
g58
sbatp12311
Rp12312
(dp12313
g13
g154
sbatp12314
Rp12315
(dp12316
g13
g58
sbag3
(g4
g5
(lp12317
g64
atp12318
Rp12319
(dp12320
g13
g68
sbatp12321
Rp12322
(dp12323
g13
g165
sbatp12324
Rp12325
(dp12326
g13
g631
sbag340
ag3
(g4
g5
(lp12327
g3
(g4
g5
(lp12328
g3
(g4
g5
(lp12329
g3
(g4
g5
(lp12330
Vsomebody
p12331
atp12332
Rp12333
(dp12334
g13
g32
sbag3
(g4
g5
(lp12335
g3
(g4
g5
(lp12336
g3
(g4
g5
(lp12337
Vmuffed
p12338
atp12339
Rp12340
(dp12341
g13
g132
sbag3
(g4
g5
(lp12342
g3
(g4
g5
(lp12343
Vit
p12344
atp12345
Rp12346
(dp12347
g13
VPRP
p12348
sbatp12349
Rp12350
(dp12351
g13
VNP
p12352
sbatp12353
Rp12354
(dp12355
g13
g58
sbag3
(g4
g5
(lp12356
g901
atp12357
Rp12358
(dp12359
g13
g68
sbatp12360
Rp12361
(dp12362
g13
g165
sbatp12363
Rp12364
(dp12365
g13
g58
sbag3
(g4
g5
(lp12366
g901
atp12367
Rp12368
(dp12369
g13
g68
sbatp12370
Rp12371
(dp12372
g13
g165
sbag3
(g4
g5
(lp12373
g3
(g4
g5
(lp12374
g3
(g4
g5
(lp12375
VSomebody
p12376
atp12377
Rp12378
(dp12379
g13
VNNP
p12380
sbatp12381
Rp12382
(dp12383
g13
VNP
p12384
sbag3
(g4
g5
(lp12385
g3
(g4
g5
(lp12386
Vwanted
p12387
atp12388
Rp12389
(dp12390
g13
g79
sbag3
(g4
g5
(lp12391
g3
(g4
g5
(lp12392
Vto
p12393
atp12394
Rp12395
(dp12396
g13
g139
sbag3
(g4
g5
(lp12397
g3
(g4
g5
(lp12398
Vjoke
p12399
atp12400
Rp12401
(dp12402
g13
VVB
p12403
sbatp12404
Rp12405
(dp12406
g13
VVP
p12407
sbatp12408
Rp12409
(dp12410
g13
g154
sbatp12411
Rp12412
(dp12413
g13
g58
sbag3
(g4
g5
(lp12414
g64
atp12415
Rp12416
(dp12417
g13
g68
sbatp12418
Rp12419
(dp12420
g13
g165
sbatp12421
Rp12422
(dp12423
g13
g1093
sbag340
asS'gb_poems/TO_BE_IN_LOVE.txt'
p12424
(lp12425
g3
(g4
g5
(lp12426
g3
(g4
g5
(lp12427
Vto
p12428
atp12429
Rp12430
(dp12431
g13
g139
sbag3
(g4
g5
(lp12432
g3
(g4
g5
(lp12433
Vbe
p12434
atp12435
Rp12436
(dp12437
g13
g32
sbag3
(g4
g5
(lp12438
g3
(g4
g5
(lp12439
Vin
p12440
atp12441
Rp12442
(dp12443
g13
g217
sbag3
(g4
g5
(lp12444
g3
(g4
g5
(lp12445
Vlove
p12446
atp12447
Rp12448
(dp12449
g13
VNN
p12450
sbatp12451
Rp12452
(dp12453
g13
VNP
p12454
sbatp12455
Rp12456
(dp12457
g13
g235
sbatp12458
Rp12459
(dp12460
g13
g58
sbatp12461
Rp12462
(dp12463
g13
g2896
sbag3
(g4
g5
(lp12464
g3
(g4
g5
(lp12465
g3
(g4
g5
(lp12466
Vis
p12467
atp12468
Rp12469
(dp12470
g13
g308
sbag3
(g4
g5
(lp12471
g3
(g4
g5
(lp12472
Vto
p12473
atp12474
Rp12475
(dp12476
g13
g139
sbag3
(g4
g5
(lp12477
g3
(g4
g5
(lp12478
Vtouch
p12479
atp12480
Rp12481
(dp12482
g13
g32
sbag3
(g4
g5
(lp12483
g3
(g4
g5
(lp12484
Vwith
p12485
atp12486
Rp12487
(dp12488
g13
g217
sbag3
(g4
g5
(lp12489
g3
(g4
g5
(lp12490
g255
atp12491
Rp12492
(dp12493
g13
g104
sbag3
(g4
g5
(lp12494
Vlighter
p12495
atp12496
Rp12497
(dp12498
g13
g448
sbag3
(g4
g5
(lp12499
Vhand
p12500
atp12501
Rp12502
(dp12503
g13
g110
sbatp12504
Rp12505
(dp12506
g13
g114
sbatp12507
Rp12508
(dp12509
g13
g235
sbatp12510
Rp12511
(dp12512
g13
g58
sbatp12513
Rp12514
(dp12515
g13
g154
sbatp12516
Rp12517
(dp12518
g13
g58
sbag3
(g4
g5
(lp12519
g64
atp12520
Rp12521
(dp12522
g13
g68
sbatp12523
Rp12524
(dp12525
g13
g165
sbag3
(g4
g5
(lp12526
g3
(g4
g5
(lp12527
Vin
p12528
atp12529
Rp12530
(dp12531
g13
g217
sbag3
(g4
g5
(lp12532
g3
(g4
g5
(lp12533
g3
(g4
g5
(lp12534
Vyourself
p12535
atp12536
Rp12537
(dp12538
g13
VNNS
p12539
sbatp12540
Rp12541
(dp12542
g13
VNP
p12543
sbag3
(g4
g5
(lp12544
g3
(g4
g5
(lp12545
Vyou
p12546
atp12547
Rp12548
(dp12549
g13
VPRP
p12550
sbatp12551
Rp12552
(dp12553
g13
VNP
p12554
sbag3
(g4
g5
(lp12555
g3
(g4
g5
(lp12556
Vstretch
p12557
atp12558
Rp12559
(dp12560
g13
VNNS
p12561
sbatp12562
Rp12563
(dp12564
g13
VNP
p12565
sbag3
(g4
g5
(lp12566
g811
atp12567
Rp12568
(dp12569
g13
g815
sbag3
(g4
g5
(lp12570
g3
(g4
g5
(lp12571
Vyou
p12572
atp12573
Rp12574
(dp12575
g13
VPRP
p12576
sbatp12577
Rp12578
(dp12579
g13
VNP
p12580
sbag3
(g4
g5
(lp12581
g3
(g4
g5
(lp12582
Vare
p12583
atp12584
Rp12585
(dp12586
g13
g14
sbag3
(g4
g5
(lp12587
g3
(g4
g5
(lp12588
Vwell
p12589
atp12590
Rp12591
(dp12592
g13
VRB
p12593
sbatp12594
Rp12595
(dp12596
g13
VADVP
p12597
sbatp12598
Rp12599
(dp12600
g13
g58
sbag3
(g4
g5
(lp12601
g64
atp12602
Rp12603
(dp12604
g13
g68
sbatp12605
Rp12606
(dp12607
g13
g165
sbatp12608
Rp12609
(dp12610
g13
g631
sbag3
(g4
g5
(lp12611
g3
(g4
g5
(lp12612
g3
(g4
g5
(lp12613
Vyou
p12614
atp12615
Rp12616
(dp12617
g13
VPRP
p12618
sbatp12619
Rp12620
(dp12621
g13
VNP
p12622
sbag3
(g4
g5
(lp12623
g3
(g4
g5
(lp12624
Vlook
p12625
atp12626
Rp12627
(dp12628
g13
g32
sbag3
(g4
g5
(lp12629
g3
(g4
g5
(lp12630
Vat
p12631
atp12632
Rp12633
(dp12634
g13
g217
sbag3
(g4
g5
(lp12635
g3
(g4
g5
(lp12636
Vthings
p12637
atp12638
Rp12639
(dp12640
g13
VNNS
p12641
sbatp12642
Rp12643
(dp12644
g13
VNP
p12645
sbatp12646
Rp12647
(dp12648
g13
g235
sbatp12649
Rp12650
(dp12651
g13
g58
sbatp12652
Rp12653
(dp12654
g13
g692
sbag3
(g4
g5
(lp12655
g3
(g4
g5
(lp12656
g3
(g4
g5
(lp12657
Vthrough
p12658
atp12659
Rp12660
(dp12661
g13
g217
sbag3
(g4
g5
(lp12662
g3
(g4
g5
(lp12663
Vhis
p12664
atp12665
Rp12666
(dp12667
g13
g970
sbag3
(g4
g5
(lp12668
Veyes
p12669
atp12670
Rp12671
(dp12672
g13
g999
sbatp12673
Rp12674
(dp12675
g13
g114
sbatp12676
Rp12677
(dp12678
g13
g235
sbag3
(g4
g5
(lp12679
g64
atp12680
Rp12681
(dp12682
g13
g68
sbatp12683
Rp12684
(dp12685
g13
g7864
sbag3
(g4
g5
(lp12686
g3
(g4
g5
(lp12687
g3
(g4
g5
(lp12688
g3
(g4
g5
(lp12689
g6586
atp12690
Rp12691
(dp12692
g13
g104
sbag3
(g4
g5
(lp12693
Vcardinal
p12694
atp12695
Rp12696
(dp12697
g13
g110
sbag3
(g4
g5
(lp12698
Vis
p12699
atp12700
Rp12701
(dp12702
g13
g308
sbatp12703
Rp12704
(dp12705
g13
g114
sbag3
(g4
g5
(lp12706
Vred
p12707
atp12708
Rp12709
(dp12710
g13
g448
sbatp12711
Rp12712
(dp12713
g13
g705
sbag3
(g4
g5
(lp12714
g64
atp12715
Rp12716
(dp12717
g13
g68
sbatp12718
Rp12719
(dp12720
g13
g713
sbag3
(g4
g5
(lp12721
g3
(g4
g5
(lp12722
g3
(g4
g5
(lp12723
g3
(g4
g5
(lp12724
g6586
atp12725
Rp12726
(dp12727
g13
g104
sbag3
(g4
g5
(lp12728
Vsky
p12729
atp12730
Rp12731
(dp12732
g13
g110
sbatp12733
Rp12734
(dp12735
g13
g114
sbag3
(g4
g5
(lp12736
Vis
p12737
atp12738
Rp12739
(dp12740
g13
g308
sbag3
(g4
g5
(lp12741
g3
(g4
g5
(lp12742
Vblue
p12743
atp12744
Rp12745
(dp12746
g13
VNN
p12747
sbatp12748
Rp12749
(dp12750
g13
VNP
p12751
sbatp12752
Rp12753
(dp12754
g13
g62
sbag3
(g4
g5
(lp12755
g64
atp12756
Rp12757
(dp12758
g13
g68
sbatp12759
Rp12760
(dp12761
g13
g72
sbag3
(g4
g5
(lp12762
g3
(g4
g5
(lp12763
g3
(g4
g5
(lp12764
Vsuddenly
p12765
atp12766
Rp12767
(dp12768
g13
VRB
p12769
sbatp12770
Rp12771
(dp12772
g13
VADVP
p12773
sbag3
(g4
g5
(lp12774
g3
(g4
g5
(lp12775
g3
(g4
g5
(lp12776
Vyou
p12777
atp12778
Rp12779
(dp12780
g13
VPRP
p12781
sbatp12782
Rp12783
(dp12784
g13
VNP
p12785
sbag3
(g4
g5
(lp12786
g3
(g4
g5
(lp12787
Vknow
p12788
atp12789
Rp12790
(dp12791
g13
g32
sbag3
(g4
g5
(lp12792
g3
(g4
g5
(lp12793
Vhe
p12794
atp12795
Rp12796
(dp12797
g13
VPRP
p12798
sbatp12799
Rp12800
(dp12801
g13
VNP
p12802
sbatp12803
Rp12804
(dp12805
g13
g58
sbatp12806
Rp12807
(dp12808
g13
g165
sbag3
(g4
g5
(lp12809
g3
(g4
g5
(lp12810
g3
(g4
g5
(lp12811
Vknows
p12812
atp12813
Rp12814
(dp12815
g13
g308
sbag3
(g4
g5
(lp12816
Vtoo
p12817
atp12818
Rp12819
(dp12820
g13
g611
sbatp12821
Rp12822
(dp12823
g13
g58
sbag3
(g4
g5
(lp12824
g64
atp12825
Rp12826
(dp12827
g13
g68
sbatp12828
Rp12829
(dp12830
g13
g165
sbatp12831
Rp12832
(dp12833
g13
g1093
sbag3
(g4
g5
(lp12834
g3
(g4
g5
(lp12835
g3
(g4
g5
(lp12836
Vhe
p12837
atp12838
Rp12839
(dp12840
g13
VPRP
p12841
sbatp12842
Rp12843
(dp12844
g13
VNP
p12845
sbag3
(g4
g5
(lp12846
g3
(g4
g5
(lp12847
Vis
p12848
atp12849
Rp12850
(dp12851
g13
g308
sbag3
(g4
g5
(lp12852
g3
(g4
g5
(lp12853
Vnot
p12854
atp12855
Rp12856
(dp12857
g13
g611
sbag3
(g4
g5
(lp12858
Vthere
p12859
atp12860
Rp12861
(dp12862
g13
g611
sbag3
(g4
g5
(lp12863
Vbut
p12864
atp12865
Rp12866
(dp12867
g13
g217
sbatp12868
Rp12869
(dp12870
g13
g2472
sbatp12871
Rp12872
(dp12873
g13
g58
sbatp12874
Rp12875
(dp12876
g13
g692
sbag3
(g4
g5
(lp12877
g3
(g4
g5
(lp12878
g3
(g4
g5
(lp12879
Vyou
p12880
atp12881
Rp12882
(dp12883
g13
VPRP
p12884
sbatp12885
Rp12886
(dp12887
g13
VNP
p12888
sbag3
(g4
g5
(lp12889
g3
(g4
g5
(lp12890
Vknow
p12891
atp12892
Rp12893
(dp12894
g13
g14
sbag3
(g4
g5
(lp12895
g3
(g4
g5
(lp12896
g3
(g4
g5
(lp12897
Vyou
p12898
atp12899
Rp12900
(dp12901
g13
VPRP
p12902
sbatp12903
Rp12904
(dp12905
g13
VNP
p12906
sbag3
(g4
g5
(lp12907
g3
(g4
g5
(lp12908
Vare
p12909
atp12910
Rp12911
(dp12912
g13
g14
sbag3
(g4
g5
(lp12913
Vtasting
p12914
atp12915
Rp12916
(dp12917
g13
g251
sbag3
(g4
g5
(lp12918
g3
(g4
g5
(lp12919
Vtogether
p12920
atp12921
Rp12922
(dp12923
g13
VRP
p12924
sbatp12925
Rp12926
(dp12927
g13
VPRT
p12928
sbatp12929
Rp12930
(dp12931
g13
g58
sbatp12932
Rp12933
(dp12934
g13
g692
sbatp12935
Rp12936
(dp12937
g13
g58
sbatp12938
Rp12939
(dp12940
g13
g692
sbag3
(g4
g5
(lp12941
g3
(g4
g5
(lp12942
g3
(g4
g5
(lp12943
Vthe
p12944
atp12945
Rp12946
(dp12947
g13
g104
sbag3
(g4
g5
(lp12948
Vwinter
p12949
atp12950
Rp12951
(dp12952
g13
g110
sbatp12953
Rp12954
(dp12955
g13
g114
sbag3
(g4
g5
(lp12956
g811
atp12957
Rp12958
(dp12959
g13
g815
sbag3
(g4
g5
(lp12960
g3
(g4
g5
(lp12961
Vor
p12962
atp12963
Rp12964
(dp12965
g13
g538
sbag3
(g4
g5
(lp12966
g255
atp12967
Rp12968
(dp12969
g13
g104
sbag3
(g4
g5
(lp12970
Vlight
p12971
atp12972
Rp12973
(dp12974
g13
g448
sbag3
(g4
g5
(lp12975
Vspring
p12976
atp12977
Rp12978
(dp12979
g13
g110
sbag3
(g4
g5
(lp12980
Vweather
p12981
atp12982
Rp12983
(dp12984
g13
g110
sbatp12985
Rp12986
(dp12987
g13
g114
sbag3
(g4
g5
(lp12988
g64
atp12989
Rp12990
(dp12991
g13
g68
sbatp12992
Rp12993
(dp12994
g13
g2073
sbag3
(g4
g5
(lp12995
g3
(g4
g5
(lp12996
g3
(g4
g5
(lp12997
Vhis
p12998
atp12999
Rp13000
(dp13001
g13
g970
sbag3
(g4
g5
(lp13002
Vhand
p13003
atp13004
Rp13005
(dp13006
g13
g110
sbatp13007
Rp13008
(dp13009
g13
g114
sbag3
(g4
g5
(lp13010
g3
(g4
g5
(lp13011
Vto
p13012
atp13013
Rp13014
(dp13015
g13
g139
sbag3
(g4
g5
(lp13016
Vtake
p13017
atp13018
Rp13019
(dp13020
g13
g32
sbag3
(g4
g5
(lp13021
g3
(g4
g5
(lp13022
Vyour
p13023
atp13024
Rp13025
(dp13026
g13
g970
sbag3
(g4
g5
(lp13027
Vhand
p13028
atp13029
Rp13030
(dp13031
g13
g110
sbag3
(g4
g5
(lp13032
Vis
p13033
atp13034
Rp13035
(dp13036
g13
g308
sbatp13037
Rp13038
(dp13039
g13
g114
sbatp13040
Rp13041
(dp13042
g13
g58
sbatp13043
Rp13044
(dp13045
g13
g3384
sbag340
ag3
(g4
g5
(lp13046
g3
(g4
g5
(lp13047
g3
(g4
g5
(lp13048
Vtoo
p13049
atp13050
Rp13051
(dp13052
g13
g611
sbag3
(g4
g5
(lp13053
Vmuch
p13054
atp13055
Rp13056
(dp13057
g13
g611
sbag3
(g4
g5
(lp13058
Vtoo
p13059
atp13060
Rp13061
(dp13062
g13
g611
sbag3
(g4
g5
(lp13063
Vbear
p13064
atp13065
Rp13066
(dp13067
g13
g448
sbatp13068
Rp13069
(dp13070
g13
g705
sbag3
(g4
g5
(lp13071
g64
atp13072
Rp13073
(dp13074
g13
g68
sbatp13075
Rp13076
(dp13077
g13
g713
sbag3
(g4
g5
(lp13078
g3
(g4
g5
(lp13079
g3
(g4
g5
(lp13080
Vyou
p13081
atp13082
Rp13083
(dp13084
g13
VPRP
p13085
sbatp13086
Rp13087
(dp13088
g13
VNP
p13089
sbag3
(g4
g5
(lp13090
g3
(g4
g5
(lp13091
Vcan
p13092
atp13093
Rp13094
(dp13095
g13
g3711
sbag3
(g4
g5
(lp13096
Vnot
p13097
atp13098
Rp13099
(dp13100
g13
g611
sbag3
(g4
g5
(lp13101
Vlook
p13102
atp13103
Rp13104
(dp13105
g13
g32
sbag3
(g4
g5
(lp13106
g3
(g4
g5
(lp13107
Vin
p13108
atp13109
Rp13110
(dp13111
g13
g217
sbag3
(g4
g5
(lp13112
g3
(g4
g5
(lp13113
Vhis
p13114
atp13115
Rp13116
(dp13117
g13
g970
sbag3
(g4
g5
(lp13118
Veyes
p13119
atp13120
Rp13121
(dp13122
g13
g999
sbatp13123
Rp13124
(dp13125
g13
g114
sbatp13126
Rp13127
(dp13128
g13
g235
sbatp13129
Rp13130
(dp13131
g13
g58
sbatp13132
Rp13133
(dp13134
g13
g692
sbag3
(g4
g5
(lp13135
g3
(g4
g5
(lp13136
Vbecause
p13137
atp13138
Rp13139
(dp13140
g13
g217
sbag3
(g4
g5
(lp13141
g3
(g4
g5
(lp13142
g3
(g4
g5
(lp13143
Vyou
p13144
atp13145
Rp13146
(dp13147
g13
VPRP
p13148
sbatp13149
Rp13150
(dp13151
g13
VNP
p13152
sbag3
(g4
g5
(lp13153
g3
(g4
g5
(lp13154
Vpulse
p13155
atp13156
Rp13157
(dp13158
g13
g32
sbag3
(g4
g5
(lp13159
Vmust
p13160
atp13161
Rp13162
(dp13163
g13
g3711
sbag3
(g4
g5
(lp13164
Vnot
p13165
atp13166
Rp13167
(dp13168
g13
g611
sbag3
(g4
g5
(lp13169
g3
(g4
g5
(lp13170
Vsay
p13171
atp13172
Rp13173
(dp13174
g13
VVB
p13175
sbatp13176
Rp13177
(dp13178
g13
VVP
p13179
sbatp13180
Rp13181
(dp13182
g13
g58
sbatp13183
Rp13184
(dp13185
g13
g165
sbatp13186
Rp13187
(dp13188
g13
g631
sbag3
(g4
g5
(lp13189
g3
(g4
g5
(lp13190
g3
(g4
g5
(lp13191
Vwhat
p13192
atp13193
Rp13194
(dp13195
g13
VWP
p13196
sbatp13197
Rp13198
(dp13199
g13
VWHNP
p13200
sbag3
(g4
g5
(lp13201
g3
(g4
g5
(lp13202
Vmust
p13203
atp13204
Rp13205
(dp13206
g13
g3711
sbag3
(g4
g5
(lp13207
g3
(g4
g5
(lp13208
Vnot
p13209
atp13210
Rp13211
(dp13212
g13
g611
sbag3
(g4
g5
(lp13213
Vbe
p13214
atp13215
Rp13216
(dp13217
g13
g32
sbag3
(g4
g5
(lp13218
g3
(g4
g5
(lp13219
g3
(g4
g5
(lp13220
Vsaid
p13221
atp13222
Rp13223
(dp13224
g13
VVBD
p13225
sbatp13226
Rp13227
(dp13228
g13
VVP
p13229
sbag3
(g4
g5
(lp13230
g64
atp13231
Rp13232
(dp13233
g13
g68
sbatp13234
Rp13235
(dp13236
g13
g165
sbatp13237
Rp13238
(dp13239
g13
g58
sbatp13240
Rp13241
(dp13242
g13
g154
sbatp13243
Rp13244
(dp13245
g13
VNP+SBAR
p13246
sbag340
ag340
ag340
ag3
(g4
g5
(lp13247
g3
(g4
g5
(lp13248
g3
(g4
g5
(lp13249
Vyour
p13250
atp13251
Rp13252
(dp13253
g13
g970
sbag3
(g4
g5
(lp13254
Varms
p13255
atp13256
Rp13257
(dp13258
g13
g110
sbatp13259
Rp13260
(dp13261
g13
g114
sbag3
(g4
g5
(lp13262
g3
(g4
g5
(lp13263
Vare
p13264
atp13265
Rp13266
(dp13267
g13
g14
sbag3
(g4
g5
(lp13268
g3
(g4
g5
(lp13269
Vwater
p13270
atp13271
Rp13272
(dp13273
g13
VNN
p13274
sbatp13275
Rp13276
(dp13277
g13
VNP
p13278
sbatp13279
Rp13280
(dp13281
g13
g58
sbag3
(g4
g5
(lp13282
g64
atp13283
Rp13284
(dp13285
g13
g68
sbatp13286
Rp13287
(dp13288
g13
g165
sbag3
(g4
g5
(lp13289
g3
(g4
g5
(lp13290
Vand
p13291
atp13292
Rp13293
(dp13294
g13
g538
sbag3
(g4
g5
(lp13295
g3
(g4
g5
(lp13296
Vyou
p13297
atp13298
Rp13299
(dp13300
g13
VPRP
p13301
sbatp13302
Rp13303
(dp13304
g13
VNP
p13305
sbag3
(g4
g5
(lp13306
g3
(g4
g5
(lp13307
Vare
p13308
atp13309
Rp13310
(dp13311
g13
g14
sbag3
(g4
g5
(lp13312
g3
(g4
g5
(lp13313
Vfree
p13314
atp13315
Rp13316
(dp13317
g13
VJJ
p13318
sbatp13319
Rp13320
(dp13321
g13
VADJP
p13322
sbatp13323
Rp13324
(dp13325
g13
g58
sbatp13326
Rp13327
(dp13328
g13
g165
sbag3
(g4
g5
(lp13329
g3
(g4
g5
(lp13330
g3
(g4
g5
(lp13331
g3
(g4
g5
(lp13332
Vwith
p13333
atp13334
Rp13335
(dp13336
g13
g217
sbag3
(g4
g5
(lp13337
g255
atp13338
Rp13339
(dp13340
g13
g104
sbatp13341
Rp13342
(dp13343
g13
g2472
sbag3
(g4
g5
(lp13344
Vghastly
p13345
atp13346
Rp13347
(dp13348
g13
g611
sbag3
(g4
g5
(lp13349
Vfreedom
p13350
atp13351
Rp13352
(dp13353
g13
g448
sbatp13354
Rp13355
(dp13356
g13
g705
sbag3
(g4
g5
(lp13357
g64
atp13358
Rp13359
(dp13360
g13
g68
sbatp13361
Rp13362
(dp13363
g13
g713
sbag3
(g4
g5
(lp13364
g3
(g4
g5
(lp13365
g3
(g4
g5
(lp13366
Vyou
p13367
atp13368
Rp13369
(dp13370
g13
VPRP
p13371
sbatp13372
Rp13373
(dp13374
g13
VNP
p13375
sbag3
(g4
g5
(lp13376
g3
(g4
g5
(lp13377
Vare
p13378
atp13379
Rp13380
(dp13381
g13
g14
sbag3
(g4
g5
(lp13382
g3
(g4
g5
(lp13383
Vthe
p13384
atp13385
Rp13386
(dp13387
g13
g104
sbag3
(g4
g5
(lp13388
Vbeautiful
p13389
atp13390
Rp13391
(dp13392
g13
g448
sbag3
(g4
g5
(lp13393
Vhalf
p13394
atp13395
Rp13396
(dp13397
g13
g110
sbatp13398
Rp13399
(dp13400
g13
g114
sbatp13401
Rp13402
(dp13403
g13
g58
sbatp13404
Rp13405
(dp13406
g13
g692
sbag3
(g4
g5
(lp13407
g3
(g4
g5
(lp13408
g3
(g4
g5
(lp13409
g3
(g4
g5
(lp13410
Vof
p13411
atp13412
Rp13413
(dp13414
g13
g217
sbag3
(g4
g5
(lp13415
g3
(g4
g5
(lp13416
g255
atp13417
Rp13418
(dp13419
g13
g104
sbag3
(g4
g5
(lp13420
Vgolden
p13421
atp13422
Rp13423
(dp13424
g13
g110
sbatp13425
Rp13426
(dp13427
g13
g114
sbatp13428
Rp13429
(dp13430
g13
g2472
sbag3
(g4
g5
(lp13431
Vhurt
p13432
atp13433
Rp13434
(dp13435
g13
g132
sbatp13436
Rp13437
(dp13438
g13
g705
sbag3
(g4
g5
(lp13439
g64
atp13440
Rp13441
(dp13442
g13
g68
sbatp13443
Rp13444
(dp13445
g13
g713
sbag3
(g4
g5
(lp13446
g3
(g4
g5
(lp13447
g3
(g4
g5
(lp13448
Vyou
p13449
atp13450
Rp13451
(dp13452
g13
VPRP
p13453
sbatp13454
Rp13455
(dp13456
g13
VNP
p13457
sbag3
(g4
g5
(lp13458
g3
(g4
g5
(lp13459
Vremember
p13460
atp13461
Rp13462
(dp13463
g13
g32
sbag3
(g4
g5
(lp13464
Vand
p13465
atp13466
Rp13467
(dp13468
g13
g538
sbag3
(g4
g5
(lp13469
Vcovet
p13470
atp13471
Rp13472
(dp13473
g13
g32
sbag3
(g4
g5
(lp13474
g3
(g4
g5
(lp13475
Vhis
p13476
atp13477
Rp13478
(dp13479
g13
g970
sbag3
(g4
g5
(lp13480
Vmouth
p13481
atp13482
Rp13483
(dp13484
g13
g110
sbatp13485
Rp13486
(dp13487
g13
g114
sbatp13488
Rp13489
(dp13490
g13
g58
sbatp13491
Rp13492
(dp13493
g13
g692
sbag3
(g4
g5
(lp13494
g3
(g4
g5
(lp13495
Vto
p13496
atp13497
Rp13498
(dp13499
g13
g139
sbag3
(g4
g5
(lp13500
g3
(g4
g5
(lp13501
Vtouch
p13502
atp13503
Rp13504
(dp13505
g13
g32
sbag3
(g4
g5
(lp13506
g3
(g4
g5
(lp13507
g3
(g4
g5
(lp13508
g811
atp13509
Rp13510
(dp13511
g13
g815
sbag3
(g4
g5
(lp13512
g3
(g4
g5
(lp13513
Vto
p13514
atp13515
Rp13516
(dp13517
g13
g139
sbag3
(g4
g5
(lp13518
g3
(g4
g5
(lp13519
Vwhisper
p13520
atp13521
Rp13522
(dp13523
g13
g32
sbag3
(g4
g5
(lp13524
g3
(g4
g5
(lp13525
Von
p13526
atp13527
Rp13528
(dp13529
g13
VIN
p13530
sbatp13531
Rp13532
(dp13533
g13
VPP
p13534
sbatp13535
Rp13536
(dp13537
g13
g58
sbatp13538
Rp13539
(dp13540
g13
g154
sbatp13541
Rp13542
(dp13543
g13
g58
sbag3
(g4
g5
(lp13544
g64
atp13545
Rp13546
(dp13547
g13
g68
sbatp13548
Rp13549
(dp13550
g13
g165
sbatp13551
Rp13552
(dp13553
g13
g58
sbatp13554
Rp13555
(dp13556
g13
g2896
sbag3
(g4
g5
(lp13557
g3
(g4
g5
(lp13558
g3
(g4
g5
(lp13559
Voh
p13560
atp13561
Rp13562
(dp13563
g13
VJJ
p13564
sbatp13565
Rp13566
(dp13567
g13
VADJP
p13568
sbag3
(g4
g5
(lp13569
g3
(g4
g5
(lp13570
g3
(g4
g5
(lp13571
Vwhen
p13572
atp13573
Rp13574
(dp13575
g13
VWRB
p13576
sbatp13577
Rp13578
(dp13579
g13
VWHADVP
p13580
sbag3
(g4
g5
(lp13581
g3
(g4
g5
(lp13582
Vto
p13583
atp13584
Rp13585
(dp13586
g13
g139
sbag3
(g4
g5
(lp13587
g3
(g4
g5
(lp13588
Vdeclare
p13589
atp13590
Rp13591
(dp13592
g13
VVB
p13593
sbatp13594
Rp13595
(dp13596
g13
VVP
p13597
sbatp13598
Rp13599
(dp13600
g13
g154
sbatp13601
Rp13602
(dp13603
g13
g333
sbatp13604
Rp13605
(dp13606
g13
g2829
sbag3
(g4
g5
(lp13607
g3
(g4
g5
(lp13608
g3
(g4
g5
(lp13609
Vis
p13610
atp13611
Rp13612
(dp13613
g13
g308
sbag3
(g4
g5
(lp13614
g3
(g4
g5
(lp13615
Vcertain
p13616
atp13617
Rp13618
(dp13619
g13
g448
sbag3
(g4
g5
(lp13620
VDeath
p13621
atp13622
Rp13623
(dp13624
g13
g110
sbatp13625
Rp13626
(dp13627
g13
g114
sbatp13628
Rp13629
(dp13630
g13
g62
sbag3
(g4
g5
(lp13631
g1454
atp13632
Rp13633
(dp13634
g13
g68
sbatp13635
Rp13636
(dp13637
g13
g72
sbag340
ag340
ag340
ag3
(g4
g5
(lp13638
g3
(g4
g5
(lp13639
Vinto
p13640
atp13641
Rp13642
(dp13643
g13
g217
sbag3
(g4
g5
(lp13644
g3
(g4
g5
(lp13645
g3
(g4
g5
(lp13646
Vthe
p13647
atp13648
Rp13649
(dp13650
g13
g104
sbag3
(g4
g5
(lp13651
Vcommonest
p13652
atp13653
Rp13654
(dp13655
g13
g110
sbatp13656
Rp13657
(dp13658
g13
g114
sbag3
(g4
g5
(lp13659
g3
(g4
g5
(lp13660
Vash
p13661
atp13662
Rp13663
(dp13664
g13
VVBZ
p13665
sbatp13666
Rp13667
(dp13668
g13
VVP
p13669
sbag3
(g4
g5
(lp13670
g64
atp13671
Rp13672
(dp13673
g13
g68
sbatp13674
Rp13675
(dp13676
g13
g165
sbatp13677
Rp13678
(dp13679
g13
g631
sbag340
asS'lh_poems/History.txt'
p13680
(lp13681
g3
(g4
g5
(lp13682
g3
(g4
g5
(lp13683
g3
(g4
g5
(lp13684
Vthe
p13685
atp13686
Rp13687
(dp13688
g13
g104
sbag3
(g4
g5
(lp13689
Vpast
p13690
atp13691
Rp13692
(dp13693
g13
g110
sbatp13694
Rp13695
(dp13696
g13
g114
sbag3
(g4
g5
(lp13697
g3
(g4
g5
(lp13698
Vhas
p13699
atp13700
Rp13701
(dp13702
g13
g308
sbag3
(g4
g5
(lp13703
Vbeen
p13704
atp13705
Rp13706
(dp13707
g13
g132
sbag3
(g4
g5
(lp13708
g3
(g4
g5
(lp13709
g255
atp13710
Rp13711
(dp13712
g13
g104
sbag3
(g4
g5
(lp13713
Vmint
p13714
atp13715
Rp13716
(dp13717
g13
g110
sbatp13718
Rp13719
(dp13720
g13
g114
sbatp13721
Rp13722
(dp13723
g13
g58
sbatp13724
Rp13725
(dp13726
g13
g3384
sbag3
(g4
g5
(lp13727
g3
(g4
g5
(lp13728
g3
(g4
g5
(lp13729
g3
(g4
g5
(lp13730
Vof
p13731
atp13732
Rp13733
(dp13734
g13
g217
sbag3
(g4
g5
(lp13735
Vblood
p13736
atp13737
Rp13738
(dp13739
g13
g110
sbatp13740
Rp13741
(dp13742
g13
g2472
sbag3
(g4
g5
(lp13743
Vand
p13744
atp13745
Rp13746
(dp13747
g13
g538
sbag3
(g4
g5
(lp13748
Vsorrow
p13749
atp13750
Rp13751
(dp13752
g13
g448
sbatp13753
Rp13754
(dp13755
g13
g705
sbag3
(g4
g5
(lp13756
g64
atp13757
Rp13758
(dp13759
g13
g68
sbatp13760
Rp13761
(dp13762
g13
g713
sbag3
(g4
g5
(lp13763
g3
(g4
g5
(lp13764
g3
(g4
g5
(lp13765
Vthat
p13766
atp13767
Rp13768
(dp13769
g13
VWDT
p13770
sbatp13771
Rp13772
(dp13773
g13
VWHNP
p13774
sbag3
(g4
g5
(lp13775
g3
(g4
g5
(lp13776
Vmust
p13777
atp13778
Rp13779
(dp13780
g13
g3711
sbag3
(g4
g5
(lp13781
g3
(g4
g5
(lp13782
Vnot
p13783
atp13784
Rp13785
(dp13786
g13
g611
sbag3
(g4
g5
(lp13787
g3
(g4
g5
(lp13788
Vbe
p13789
atp13790
Rp13791
(dp13792
g13
VVB
p13793
sbatp13794
Rp13795
(dp13796
g13
VVP
p13797
sbatp13798
Rp13799
(dp13800
g13
g58
sbatp13801
Rp13802
(dp13803
g13
g154
sbatp13804
Rp13805
(dp13806
g13
g333
sbag3
(g4
g5
(lp13807
g3
(g4
g5
(lp13808
g3
(g4
g5
(lp13809
Vtrue
p13810
atp13811
Rp13812
(dp13813
g13
g448
sbag3
(g4
g5
(lp13814
g3
(g4
g5
(lp13815
Vof
p13816
atp13817
Rp13818
(dp13819
g13
g217
sbag3
(g4
g5
(lp13820
g3
(g4
g5
(lp13821
Vtomorrow
p13822
atp13823
Rp13824
(dp13825
g13
VNN
p13826
sbatp13827
Rp13828
(dp13829
g13
VNP
p13830
sbatp13831
Rp13832
(dp13833
g13
g235
sbatp13834
Rp13835
(dp13836
g13
g705
sbag3
(g4
g5
(lp13837
g64
atp13838
Rp13839
(dp13840
g13
g68
sbatp13841
Rp13842
(dp13843
g13
g713
sbag340
asS'gb_poems/Sadie_and_Maud.txt'
p13844
(lp13845
g3
(g4
g5
(lp13846
g3
(g4
g5
(lp13847
g3
(g4
g5
(lp13848
Vmaud
p13849
atp13850
Rp13851
(dp13852
g13
g448
sbag3
(g4
g5
(lp13853
g3
(g4
g5
(lp13854
Vwent
p13855
atp13856
Rp13857
(dp13858
g13
g79
sbag3
(g4
g5
(lp13859
g3
(g4
g5
(lp13860
Vto
p13861
atp13862
Rp13863
(dp13864
g13
g139
sbag3
(g4
g5
(lp13865
g3
(g4
g5
(lp13866
Vcollege
p13867
atp13868
Rp13869
(dp13870
g13
VNN
p13871
sbatp13872
Rp13873
(dp13874
g13
VNP
p13875
sbatp13876
Rp13877
(dp13878
g13
g235
sbatp13879
Rp13880
(dp13881
g13
g154
sbatp13882
Rp13883
(dp13884
g13
g705
sbag3
(g4
g5
(lp13885
g64
atp13886
Rp13887
(dp13888
g13
g68
sbatp13889
Rp13890
(dp13891
g13
g713
sbag3
(g4
g5
(lp13892
g3
(g4
g5
(lp13893
g3
(g4
g5
(lp13894
Vsadie
p13895
atp13896
Rp13897
(dp13898
g13
g308
sbag3
(g4
g5
(lp13899
g3
(g4
g5
(lp13900
Vstayed
p13901
atp13902
Rp13903
(dp13904
g13
g448
sbag3
(g4
g5
(lp13905
Vhome
p13906
atp13907
Rp13908
(dp13909
g13
g110
sbatp13910
Rp13911
(dp13912
g13
g114
sbatp13913
Rp13914
(dp13915
g13
g62
sbag3
(g4
g5
(lp13916
g64
atp13917
Rp13918
(dp13919
g13
g68
sbatp13920
Rp13921
(dp13922
g13
g72
sbag3
(g4
g5
(lp13923
g3
(g4
g5
(lp13924
Vsadie
p13925
atp13926
Rp13927
(dp13928
g13
g448
sbag3
(g4
g5
(lp13929
Vscraped
p13930
atp13931
Rp13932
(dp13933
g13
g448
sbag3
(g4
g5
(lp13934
Vlife
p13935
atp13936
Rp13937
(dp13938
g13
g110
sbatp13939
Rp13940
(dp13941
g13
g9873
sbag3
(g4
g5
(lp13942
g3
(g4
g5
(lp13943
Vwith
p13944
atp13945
Rp13946
(dp13947
g13
g217
sbag3
(g4
g5
(lp13948
g3
(g4
g5
(lp13949
g3
(g4
g5
(lp13950
g255
atp13951
Rp13952
(dp13953
g13
g104
sbag3
(g4
g5
(lp13954
Vfine
p13955
atp13956
Rp13957
(dp13958
g13
g110
sbatp13959
Rp13960
(dp13961
g13
g114
sbag3
(g4
g5
(lp13962
g3
(g4
g5
(lp13963
Vtoothed
p13964
atp13965
Rp13966
(dp13967
g13
g79
sbag3
(g4
g5
(lp13968
g3
(g4
g5
(lp13969
Vcomb
p13970
atp13971
Rp13972
(dp13973
g13
VJJ
p13974
sbatp13975
Rp13976
(dp13977
g13
VADJP
p13978
sbatp13979
Rp13980
(dp13981
g13
g58
sbag3
(g4
g5
(lp13982
g64
atp13983
Rp13984
(dp13985
g13
g68
sbatp13986
Rp13987
(dp13988
g13
g165
sbatp13989
Rp13990
(dp13991
g13
g631
sbag340
ag3
(g4
g5
(lp13992
g3
(g4
g5
(lp13993
g3
(g4
g5
(lp13994
Vshe
p13995
atp13996
Rp13997
(dp13998
g13
VPRP
p13999
sbatp14000
Rp14001
(dp14002
g13
VNP
p14003
sbag3
(g4
g5
(lp14004
g3
(g4
g5
(lp14005
Vdidnt
p14006
atp14007
Rp14008
(dp14009
g13
g32
sbag3
(g4
g5
(lp14010
Vleave
p14011
atp14012
Rp14013
(dp14014
g13
g32
sbag3
(g4
g5
(lp14015
g3
(g4
g5
(lp14016
g255
atp14017
Rp14018
(dp14019
g13
g104
sbag3
(g4
g5
(lp14020
Vtangle
p14021
atp14022
Rp14023
(dp14024
g13
g110
sbatp14025
Rp14026
(dp14027
g13
g114
sbag3
(g4
g5
(lp14028
g3
(g4
g5
(lp14029
Vin
p14030
atp14031
Rp14032
(dp14033
g13
VIN
p14034
sbatp14035
Rp14036
(dp14037
g13
VPP
p14038
sbatp14039
Rp14040
(dp14041
g13
g58
sbatp14042
Rp14043
(dp14044
g13
g692
sbag3
(g4
g5
(lp14045
g3
(g4
g5
(lp14046
g3
(g4
g5
(lp14047
Vher
p14048
atp14049
Rp14050
(dp14051
g13
g970
sbag3
(g4
g5
(lp14052
Vcomb
p14053
atp14054
Rp14055
(dp14056
g13
g110
sbatp14057
Rp14058
(dp14059
g13
g114
sbag3
(g4
g5
(lp14060
g3
(g4
g5
(lp14061
Vfound
p14062
atp14063
Rp14064
(dp14065
g13
g132
sbag3
(g4
g5
(lp14066
g3
(g4
g5
(lp14067
Vevery
p14068
atp14069
Rp14070
(dp14071
g13
g104
sbag3
(g4
g5
(lp14072
Vstrand
p14073
atp14074
Rp14075
(dp14076
g13
g110
sbatp14077
Rp14078
(dp14079
g13
g114
sbatp14080
Rp14081
(dp14082
g13
g58
sbag3
(g4
g5
(lp14083
g64
atp14084
Rp14085
(dp14086
g13
g68
sbatp14087
Rp14088
(dp14089
g13
g165
sbag3
(g4
g5
(lp14090
g3
(g4
g5
(lp14091
g3
(g4
g5
(lp14092
Vsadie
p14093
atp14094
Rp14095
(dp14096
g13
VRB
p14097
sbatp14098
Rp14099
(dp14100
g13
VADVP
p14101
sbag3
(g4
g5
(lp14102
g3
(g4
g5
(lp14103
Vwas
p14104
atp14105
Rp14106
(dp14107
g13
g79
sbag3
(g4
g5
(lp14108
g3
(g4
g5
(lp14109
Vone
p14110
atp14111
Rp14112
(dp14113
g13
VCD
p14114
sbatp14115
Rp14116
(dp14117
g13
VNP
p14118
sbag3
(g4
g5
(lp14119
g3
(g4
g5
(lp14120
Vof
p14121
atp14122
Rp14123
(dp14124
g13
g217
sbag3
(g4
g5
(lp14125
g3
(g4
g5
(lp14126
Vthe
p14127
atp14128
Rp14129
(dp14130
g13
g104
sbag3
(g4
g5
(lp14131
Vlivingest
p14132
atp14133
Rp14134
(dp14135
g13
g448
sbag3
(g4
g5
(lp14136
Vchicks
p14137
atp14138
Rp14139
(dp14140
g13
g110
sbatp14141
Rp14142
(dp14143
g13
g114
sbatp14144
Rp14145
(dp14146
g13
g235
sbatp14147
Rp14148
(dp14149
g13
g58
sbatp14150
Rp14151
(dp14152
g13
g2336
sbag3
(g4
g5
(lp14153
g3
(g4
g5
(lp14154
g3
(g4
g5
(lp14155
Vin
p14156
atp14157
Rp14158
(dp14159
g13
g217
sbag3
(g4
g5
(lp14160
g3
(g4
g5
(lp14161
Vall
p14162
atp14163
Rp14164
(dp14165
g13
g104
sbag3
(g4
g5
(lp14166
Vthe
p14167
atp14168
Rp14169
(dp14170
g13
g104
sbag3
(g4
g5
(lp14171
Vland
p14172
atp14173
Rp14174
(dp14175
g13
g110
sbatp14176
Rp14177
(dp14178
g13
g114
sbatp14179
Rp14180
(dp14181
g13
g235
sbag3
(g4
g5
(lp14182
g64
atp14183
Rp14184
(dp14185
g13
g68
sbatp14186
Rp14187
(dp14188
g13
g7864
sbag340
ag3
(g4
g5
(lp14189
g3
(g4
g5
(lp14190
g3
(g4
g5
(lp14191
Vsadie
p14192
atp14193
Rp14194
(dp14195
g13
VJJ
p14196
sbatp14197
Rp14198
(dp14199
g13
VADJP
p14200
sbag3
(g4
g5
(lp14201
g3
(g4
g5
(lp14202
Vbore
p14203
atp14204
Rp14205
(dp14206
g13
VJJ
p14207
sbatp14208
Rp14209
(dp14210
g13
VADJP
p14211
sbag3
(g4
g5
(lp14212
g3
(g4
g5
(lp14213
Vtwo
p14214
atp14215
Rp14216
(dp14217
g13
g605
sbag3
(g4
g5
(lp14218
Vbabies
p14219
atp14220
Rp14221
(dp14222
g13
g999
sbatp14223
Rp14224
(dp14225
g13
g114
sbatp14226
Rp14227
(dp14228
g13
g9286
sbag3
(g4
g5
(lp14229
g3
(g4
g5
(lp14230
Vunder
p14231
atp14232
Rp14233
(dp14234
g13
g217
sbag3
(g4
g5
(lp14235
g3
(g4
g5
(lp14236
g3
(g4
g5
(lp14237
g3
(g4
g5
(lp14238
Vher
p14239
atp14240
Rp14241
(dp14242
g13
VPRP
p14243
sbatp14244
Rp14245
(dp14246
g13
VNP
p14247
sbag3
(g4
g5
(lp14248
g3
(g4
g5
(lp14249
Vmaiden
p14250
atp14251
Rp14252
(dp14253
g13
g448
sbag3
(g4
g5
(lp14254
Vname
p14255
atp14256
Rp14257
(dp14258
g13
g110
sbatp14259
Rp14260
(dp14261
g13
g114
sbatp14262
Rp14263
(dp14264
g13
g58
sbag3
(g4
g5
(lp14265
g64
atp14266
Rp14267
(dp14268
g13
g68
sbatp14269
Rp14270
(dp14271
g13
g165
sbatp14272
Rp14273
(dp14274
g13
g631
sbag3
(g4
g5
(lp14275
g3
(g4
g5
(lp14276
Vmaud
p14277
atp14278
Rp14279
(dp14280
g13
g308
sbag3
(g4
g5
(lp14281
g3
(g4
g5
(lp14282
Vand
p14283
atp14284
Rp14285
(dp14286
g13
g538
sbag3
(g4
g5
(lp14287
VMa
p14288
atp14289
Rp14290
(dp14291
g13
g1049
sbag3
(g4
g5
(lp14292
Vand
p14293
atp14294
Rp14295
(dp14296
g13
g538
sbag3
(g4
g5
(lp14297
VPapa
p14298
atp14299
Rp14300
(dp14301
g13
g1049
sbatp14302
Rp14303
(dp14304
g13
g114
sbatp14305
Rp14306
(dp14307
g13
g12256
sbag3
(g4
g5
(lp14308
g3
(g4
g5
(lp14309
g3
(g4
g5
(lp14310
g3
(g4
g5
(lp14311
Vnearly
p14312
atp14313
Rp14314
(dp14315
g13
g611
sbag3
(g4
g5
(lp14316
Vdied
p14317
atp14318
Rp14319
(dp14320
g13
g132
sbatp14321
Rp14322
(dp14323
g13
g705
sbag3
(g4
g5
(lp14324
g3
(g4
g5
(lp14325
Vof
p14326
atp14327
Rp14328
(dp14329
g13
g217
sbag3
(g4
g5
(lp14330
g3
(g4
g5
(lp14331
Vshame
p14332
atp14333
Rp14334
(dp14335
g13
VNN
p14336
sbatp14337
Rp14338
(dp14339
g13
VNP
p14340
sbatp14341
Rp14342
(dp14343
g13
g235
sbatp14344
Rp14345
(dp14346
g13
g705
sbag3
(g4
g5
(lp14347
g64
atp14348
Rp14349
(dp14350
g13
g68
sbatp14351
Rp14352
(dp14353
g13
g713
sbag340
ag340
ag3
(g4
g5
(lp14354
g3
(g4
g5
(lp14355
g3
(g4
g5
(lp14356
Vher
p14357
atp14358
Rp14359
(dp14360
g13
g970
sbag3
(g4
g5
(lp14361
Vgirls
p14362
atp14363
Rp14364
(dp14365
g13
g448
sbag3
(g4
g5
(lp14366
Vstruck
p14367
atp14368
Rp14369
(dp14370
g13
g110
sbatp14371
Rp14372
(dp14373
g13
g114
sbag3
(g4
g5
(lp14374
g3
(g4
g5
(lp14375
g3
(g4
g5
(lp14376
Vout
p14377
atp14378
Rp14379
(dp14380
g13
VRP
p14381
sbatp14382
Rp14383
(dp14384
g13
VPRT
p14385
sbag3
(g4
g5
(lp14386
g3
(g4
g5
(lp14387
Vfrom
p14388
atp14389
Rp14390
(dp14391
g13
g217
sbag3
(g4
g5
(lp14392
g3
(g4
g5
(lp14393
Vhome
p14394
atp14395
Rp14396
(dp14397
g13
VNN
p14398
sbatp14399
Rp14400
(dp14401
g13
VNP
p14402
sbatp14403
Rp14404
(dp14405
g13
g235
sbatp14406
Rp14407
(dp14408
g13
g58
sbag3
(g4
g5
(lp14409
g64
atp14410
Rp14411
(dp14412
g13
g68
sbatp14413
Rp14414
(dp14415
g13
g165
sbag340
ag3
(g4
g5
(lp14416
g3
(g4
g5
(lp14417
g3
(g4
g5
(lp14418
Vher
p14419
atp14420
Rp14421
(dp14422
g13
g970
sbag3
(g4
g5
(lp14423
Vfine-toothed
p14424
atp14425
Rp14426
(dp14427
g13
g448
sbag3
(g4
g5
(lp14428
Vcomb
p14429
atp14430
Rp14431
(dp14432
g13
g110
sbatp14433
Rp14434
(dp14435
g13
g114
sbag3
(g4
g5
(lp14436
g64
atp14437
Rp14438
(dp14439
g13
g68
sbag3
(g4
g5
(lp14440
g788
atp14441
Rp14442
(dp14443
g13
g792
sbatp14444
Rp14445
(dp14446
g13
g165
sbag340
ag340
ag3
(g4
g5
(lp14447
g3
(g4
g5
(lp14448
g3
(g4
g5
(lp14449
Vis
p14450
atp14451
Rp14452
(dp14453
g13
g308
sbag3
(g4
g5
(lp14454
g3
(g4
g5
(lp14455
g255
atp14456
Rp14457
(dp14458
g13
g104
sbag3
(g4
g5
(lp14459
Vthin
p14460
atp14461
Rp14462
(dp14463
g13
g448
sbag3
(g4
g5
(lp14464
Vbrown
p14465
atp14466
Rp14467
(dp14468
g13
g448
sbag3
(g4
g5
(lp14469
Vmouse
p14470
atp14471
Rp14472
(dp14473
g13
g110
sbatp14474
Rp14475
(dp14476
g13
g114
sbatp14477
Rp14478
(dp14479
g13
g62
sbag3
(g4
g5
(lp14480
g64
atp14481
Rp14482
(dp14483
g13
g68
sbatp14484
Rp14485
(dp14486
g13
g72
sbag3
(g4
g5
(lp14487
g3
(g4
g5
(lp14488
g3
(g4
g5
(lp14489
Vshe
p14490
atp14491
Rp14492
(dp14493
g13
VPRP
p14494
sbatp14495
Rp14496
(dp14497
g13
VNP
p14498
sbag3
(g4
g5
(lp14499
g3
(g4
g5
(lp14500
Vis
p14501
atp14502
Rp14503
(dp14504
g13
g308
sbag3
(g4
g5
(lp14505
Vliving
p14506
atp14507
Rp14508
(dp14509
g13
g251
sbag3
(g4
g5
(lp14510
Vall
p14511
atp14512
Rp14513
(dp14514
g13
g611
sbag3
(g4
g5
(lp14515
g3
(g4
g5
(lp14516
Valone
p14517
atp14518
Rp14519
(dp14520
g13
VRB
p14521
sbatp14522
Rp14523
(dp14524
g13
VADJP
p14525
sbatp14526
Rp14527
(dp14528
g13
g58
sbatp14529
Rp14530
(dp14531
g13
g692
sbag3
(g4
g5
(lp14532
g3
(g4
g5
(lp14533
g3
(g4
g5
(lp14534
Vin
p14535
atp14536
Rp14537
(dp14538
g13
g217
sbag3
(g4
g5
(lp14539
g3
(g4
g5
(lp14540
Vthis
p14541
atp14542
Rp14543
(dp14544
g13
g104
sbag3
(g4
g5
(lp14545
Vold
p14546
atp14547
Rp14548
(dp14549
g13
g448
sbag3
(g4
g5
(lp14550
Vhouse
p14551
atp14552
Rp14553
(dp14554
g13
g110
sbatp14555
Rp14556
(dp14557
g13
g114
sbatp14558
Rp14559
(dp14560
g13
g235
sbag3
(g4
g5
(lp14561
g64
atp14562
Rp14563
(dp14564
g13
g68
sbatp14565
Rp14566
(dp14567
g13
g7864
sbag340
as.