(dp0
VPRP$
p1
c__builtin__
set
p2
((lp3
Vhis
p4
aVher
p5
aVyour
p6
aVtheir
p7
aVour
p8
aVmy
p9
aVits
p10
atp11
Rp12
sVVBG
p13
g2
((lp14
Vremembering
p15
aVlynching
p16
aVwalking
p17
aVhoping
p18
aVbearing
p19
aVbeing
p20
aVtalking
p21
aVtwirling
p22
aVclutching
p23
aVconsenting
p24
aVhumming
p25
aVliking
p26
aVowning
p27
aVliving
p28
aVfeeding
p29
aVdying
p30
aVtasting
p31
aVcomplaining
p32
aVevoking
p33
aVeverything
p34
aVgoing
p35
aVcrying
p36
aVripening
p37
aVindrying
p38
aVseeking
p39
aVshowing
p40
aVleaping
p41
aVfinding
p42
aVsatisfying
p43
aVputting
p44
aVcoming
p45
aVsing
p46
aVtrying
p47
aVcreaking
p48
aVforgetting
p49
aVfeeling
p50
atp51
Rp52
sVVBD
p53
g2
((lp54
Vthanked
p55
aVturned
p56
aVsailed
p57
aVsaid
p58
aVopened
p59
aVhad
p60
aVtoothed
p61
aVgot
p62
aVwas
p63
aVtold
p64
aVlived
p65
aVbid
p66
aVtook
p67
aVlet
p68
aVsmiled
p69
aVput
p70
aVwanted
p71
aVmade
p72
aVdid
p73
aVheed
p74
aVwere
p75
aVwent
p76
aVcame
p77
aVleft
p78
atp79
Rp80
sVVBN
p81
g2
((lp82
Vbartered
p83
aVshot
p84
aVdreamed
p85
aVpointed
p86
aVturned
p87
aVheld
p88
aVdone
p89
aVreached
p90
aVlinked
p91
aVaint
p92
aVbeen
p93
aVanswered
p94
aVmuffed
p95
aVtaken
p96
aVgot
p97
aVsent
p98
aVused
p99
aVsold
p100
aVnobody
p101
aVgreed
p102
aVcrushed
p103
aVhurt
p104
aVenthroned
p105
aVbroken
p106
aVashamed
p107
aVcrowned
p108
aVcome
p109
aVdied
p110
aVlost
p111
aVclenched
p112
aVlooked
p113
aVtangled
p114
aVsupposed
p115
aVbelieved
p116
aVfound
p117
aVdeceived
p118
aVfitted
p119
aVleft
p120
atp121
Rp122
sVVBP
p123
g2
((lp124
Vsound
p125
aVdo
p126
aVlove
p127
aVseek
p128
aVknew
p129
aVam
p130
aVlive
p131
aVplain,
p132
aVface
p133
aVbreathe
p134
aVsay
p135
aVlaugh,
p136
aVlet
p137
aVare
p138
aVhave
p139
aVtalk
p140
aVsaid,
p141
aVthink
p142
aVhope
p143
aVknow
p144
atp145
Rp146
sVWDT
p147
g2
((lp148
Vwhat
p149
aVthat
p150
atp151
Rp152
sVJJ
p153
g2
((lp154
Vshop
p155
aVlies,
p156
aVscattered
p157
aVyellow
p158
aVsame
p159
aVcold
p160
aVrot
p161
aVhappiness
p162
aVdont
p163
aVlessons
p164
aVtrue,
p165
aVslow
p166
aVsomewhere
p167
aVpoorest
p168
aVyoung
p169
aVtyrants
p170
aVonly
p171
aVwilling
p172
aVblack
p173
aVyesterdays
p174
aVstain
p175
aVendless
p176
aVreal
p177
aVbrown
p178
aVgood
p179
aVinsensitive
p180
aVcoquettish
p181
aVinvoluntary
p182
aVbig
p183
aVbreaks
p184
aVjazz
p185
aVlurk
p186
aVbear
p187
aVearly
p188
aVwhistle
p189
aVlighter
p190
aVburns
p191
aVstrand
p192
aVfurniture
p193
aVwont
p194
aVbeads
p195
aVequality
p196
aVtobacco
p197
aVonion
p198
aVstupid
p199
aVlife-ways
p200
aVpain,
p201
aVsmall
p202
aVgrab
p203
aVstammer
p204
aVMAN
p205
aVbrave
p206
aVold
p207
aVhard
p208
aVdead
p209
aVpast
p210
aVlechery
p211
aVmighty
p212
aVmigration
p213
aVdear
p214
aVbore
p215
aVscraped
p216
aVcasual
p217
aVslaverys
p218
aVcoppers
p219
aVlovers
p220
aVdraws
p221
aVlukewarm
p222
aVwashed
p223
aVcell
p224
aVclean,
p225
aVnew
p226
aVred
p227
aVthin
p228
aVfull
p229
aVnobodyll
p230
aVsadie
p231
aVtwang
p232
aVsorrow
p233
aVlittle
p234
aVfree
p235
aVcork
p236
aVJUDGE
p237
aVancient
p238
aVO
p239
aVsummer-gone
p240
aVcomb
p241
aVthrow
p242
aVworkers,
p243
aVdry
p244
aVgreat
p245
aVfeeling
p246
aVlast
p247
aVoh
p248
aVfreedom
p249
aVNO
p250
aVdams,
p251
aVhonest
p252
aVdue
p253
aVsay,
p254
aVfree,
p255
aVpatriotic
p256
aVblack,
p257
aVrailway
p258
aVgrayed
p259
aVpuny
p260
aVthats
p261
aVtorn
p262
aVflatware
p263
aVgarbage
p264
aVhope,
p265
aVsweet
p266
aVyourself
p267
aVpossessive
p268
aVeviction
p269
aVBlack
p270
aVfrosty
p271
aVpower-
p272
aVtools
p273
aVrented
p274
aVbathroom
p275
aVdevil
p276
aVhes
p277
aVgirls
p278
aVarms
p279
aVtiny
p280
aVcommunion
p281
aVstrong
p282
aVTHREATENS
p283
aVmaster
p284
aVwhite
p285
aVmountains
p286
aVahead,
p287
aVmarbles
p288
aVbasic
p289
aVmine
p290
aVfine-toothed
p291
aVwarm
p292
aVsomewhat
p293
aVwhite,
p294
aVWait,
p295
aVfooled
p296
aVtrue
p297
aVTENANT
p298
aVchill
p299
aVa-wobble,
p300
aVHELD
p301
aVgangster
p302
aVplain
p303
aVanticipate
p304
aVsmashes
p305
aVugly
p306
aVmaud
p307
aViron
p308
aVtuskegee
p309
aVfried
p310
aVdarker
p311
aVbeautiful
p312
aVpatrol
p313
aVcertain
p314
aVam
p315
aVmill
p316
aVhigh
p317
aVpushed
p318
aVsingle
p319
aVweve
p320
aValone-as
p321
aVgray.
p322
aVsaid,
p323
aVGIVES
p324
aVlid
p325
aVhesitate
p326
aVgenuine
p327
aVable
p328
aVgreen
p329
aVstayed
p330
aVtill
p331
aVtin
p332
aVlivingest
p333
aVI,
p334
aVpeoples
p335
aVheadlines
p336
aVsweat
p337
aVpoor
p338
aVbrothers
p339
aVmaiden
p340
aVseparate
p341
aVswell
p342
aVlong
p343
aVCOUNTY
p344
aVwrong
p345
aVgon
p346
aVsuch
p347
aVamerica
p348
aVdark
p349
aVtwinges,
p350
aVremember
p351
aVlight
p352
aVhungry
p353
aVthere_
p354
aVflags
p355
aVvery
p356
aVdream
p357
aVsongs
p358
atp359
Rp360
sVWP
p361
g2
((lp362
Vwhat
p363
aVwho
p364
atp365
Rp366
sVVBZ
p367
g2
((lp368
Vforget
p369
aVcloths
p370
aVis
p371
aVvases
p372
aVcrumbs
p373
aVtremulous
p374
aVsings
p375
aVshuts
p376
aVjobless
p377
aVbeaten
p378
aVdoes
p379
aVUm-huh
p380
aVhas
p381
aVknows
p382
aVsadie
p383
aVwarm
p384
aVconsult
p385
aVhopes
p386
aVdreamt
p387
aVash
p388
aVtakes
p389
aVon-till
p390
aVtobacco
p391
aVhumble
p392
aVhungry
p393
aVdinner
p394
aVmaud
p395
aVcomes
p396
aVthats
p397
atp398
Rp399
sVDT
p400
g2
((lp401
Va
p402
aVA
p403
aVall
p404
aVno
p405
aVthis
p406
aVthat
p407
aVsome
p408
aVan
p409
aVThe
p410
aVthese
p411
aVevery
p412
aVanother
p413
aVeach
p414
aVthe
p415
aVany
p416
aVthose
p417
atp418
Rp419
sVVP+VBZ
p420
g2
((lp421
VSharecroppers,
p422
aVFarmers,
p423
aVTomorrow,
p424
aVMiners,
p425
aVListen:
p426
aVToday-
p427
aVToday,
p428
aVSlow,
p429
aVMechanics,
p430
aVServants,
p431
atp432
Rp433
sVRP
p434
g2
((lp435
Voff
p436
aVaway
p437
aVup
p438
aVtogether
p439
aVback
p440
aVdown
p441
aVout
p442
atp443
Rp444
sVNN
p445
g2
((lp446
Vaffair
p447
aVdreams
p448
aVoffice
p449
aVsummer
p450
aVmoney
p451
aVflowers
p452
aVstays
p453
aVfingers
p454
aVmighty
p455
aVDeath
p456
aVdown,
p457
aVoath
p458
aVdogmas
p459
aVhell
p460
aVrooms,
p461
aVfaith
p462
aVfine
p463
aVcontinent
p464
aVso-long
p465
aVmigration
p466
aVmachine
p467
aVdeath
p468
aVpolice
p469
aVchain
p470
aVflask
p471
aVland,
p472
aVBAIL
p473
aVglee
p474
aVsky
p475
aVtwinklings
p476
aVNEGRO
p477
aVchicks
p478
aVhome,
p479
aVblaze
p480
aVrich
p481
aVfarmer
p482
aVtoday
p483
aVJAIL
p484
aVjars
p485
aVfurrow
p486
aVhope
p487
aVdolls
p488
aVpay
p489
aVwoman
p490
aVtime-clock
p491
aVsong
p492
aVdreamers
p493
aVrailroads
p494
aVwood,
p495
aVnone
p496
aVdark
p497
aVmatters
p498
aVdeath,
p499
aVfall
p500
aVworld
p501
aVtrouble
p502
aVhalo
p503
aVday
p504
aVminute
p505
aVbread
p506
aVgray
p507
aVsearch
p508
aVcrisp
p509
aVname
p510
aVlies
p511
aVpotatoes
p512
aVfuture
p513
aVpress:
p514
aVbrother
p515
aVfactories
p516
aVheart
p517
aVthroat,
p518
aVstupid
p519
aVsteps
p520
aVworker,
p521
aVlandlord
p522
aVnight
p523
aVform:
p524
aVwoman.
p525
aVbrick
p526
aVrack
p527
aVhusband
p528
aVclothes
p529
aVcrescendo
p530
aVuntrue
p531
aVforce
p532
aVworker
p533
aVprayers
p534
aVseas
p535
aVhouse
p536
aVback
p537
aVGold,
p538
aVkitchen
p539
aVloyalty
p540
aVcollege
p541
aVbed
p542
aVfist
p543
aVlives,
p544
aVclose
p545
aVhelpless
p546
aVair
p547
aVchipware
p548
aVwings
p549
aVwonder
p550
aVgiddy
p551
aVmen,
p552
aVmake,
p553
aVface,
p554
aVsun
p555
aVkitchen,
p556
aVmines
p557
aVsung
p558
aVpioneer
p559
aVday,
p560
aVrace
p561
aVdiamonds
p562
aVpair,
p563
aVsteel
p564
aVcan
p565
aVnothing
p566
aVnow,
p567
aVtruth
p568
aVpower
p569
aVresume
p570
aVweak
p571
aVhung,
p572
aVveil
p573
aVplow
p574
ag239
aVcork
p575
aVwater
p576
aVdaring
p577
aVrivers
p578
aVwell,
p579
aVsing
p580
aVdissonant
p581
aVcomb
p582
aVtower
p583
aVchange
p584
aVlandlord,
p585
aVME
p586
aVin,
p587
aVstone
p588
aVfoundry
p589
aVtwirl
p590
aVgrasses
p591
aVill
p592
aVsister-now-today
p593
aVlight.
p594
aVlea,
p595
aVthing
p596
aVprofit
p597
aVbeans
p598
aVkings,
p599
aVspit
p600
aVscheme
p601
aVstruck
p602
aVout,
p603
aVthats
p604
aVroad
p605
aVplan
p606
aVand
p607
aVaria
p608
aVlove
p609
aVcase,
p610
aVbell
p611
aVcolor
p612
aVsweet
p613
aVrain,
p614
aVhomeland
p615
aVrace,
p616
aVone
p617
aVfumes
p618
aVweather
p619
aVgrief,
p620
aVsoul
p621
aVroads
p622
aVtable
p623
aVmessage
p624
aVtangle
p625
aVtools
p626
aVtomorrow
p627
aVtime-clock,
p628
aVstretch
p629
aVstanding
p630
aVnow-
p631
aVbelief,
p632
aVunion
p633
aVbees
p634
aVbite
p635
aVflag
p636
aVarms
p637
aVslow,
p638
aVflutter
p639
aVstealth
p640
aVLANDLORD
p641
aVdrowsy
p642
aVGod,
p643
aVspring
p644
aVstrike
p645
aVwhite
p646
aVlegs
p647
aVmeeting
p648
aVwar
p649
aVempty
p650
aVleeches
p651
aVsort
p652
aVtowers,
p653
aVlife
p654
aVdoor
p655
aVway
p656
aVgay
p657
aVroad,
p658
aVtowers
p659
aVmind
p660
aVcompany
p661
aVwreath,
p662
aVbees-
p663
aVFREE
p664
aVaware
p665
aVmisery,
p666
aVheat
p667
aVworkers,
p668
aVpay,
p669
aVgold
p670
aVear
p671
aVruby
p672
aVgolden
p673
aVchill
p674
aVserf
p675
aVpast
p676
aVhall,
p677
aVmint
p678
aVword
p679
aVroom
p680
aVgirls,
p681
aVplain
p682
aVwork
p683
aVtree
p684
aVbitterness
p685
aVroof
p686
aVhalls
p687
aVwill
p688
aVstreet
p689
aVfriend
p690
aVfreedom
p691
aVdregs
p692
aVpast-
p693
aVlatch
p694
aVdare
p695
aVmistake
p696
aVremembering
p697
aVfirm
p698
aVscars
p699
aVfalse
p700
aVgrassy
p701
aVangel
p702
aVtaste
p703
aVsoil
p704
aVhalf
p705
aVstrand
p706
aVhead
p707
aVhoney
p708
aVshame
p709
aVdual
p710
aVhome
p711
aVneed
p712
aVimpudent
p713
aVplan,
p714
aVmouse
p715
aVrape
p716
aVgraft
p717
aVstrength
p718
aVcourt
p719
aVwinter
p720
aVHands,
p721
aVislanding
p722
aVna
p723
aVdriven
p724
aVgovernment
p725
aVbed,
p726
aVmember
p727
aVtill
p728
aVcardinal
p729
aVposter
p730
aVgate
p731
aVmumbles
p732
aVdaughters
p733
aVnice
p734
aVweek
p735
aVblue
p736
aVagain,
p737
aVours:
p738
aVleak
p739
aVtime
p740
aVreach
p741
aVpolite
p742
aVhand
p743
aVtallness
p744
aVyes,
p745
aVmouth
p746
aVblood
p747
aVbrotherhood
p748
aVhear-
p749
aVhurt
p750
aVopportunity
p751
aVdesert
p752
aVours,
p753
aVman
p754
aVfactories,
p755
aVland
p756
aVwife
p757
aVdoor-
p758
aVlearn,
p759
aVimmigrant
p760
aVdog
p761
aVface
p762
aVcommonest
p763
aVshore
p764
aVrelief
p765
aVmother
p766
aVechoes
p767
aVmean
p768
aVdream
p769
aVincomplete
p770
aVwine
p771
atp772
Rp773
sV,
p774
g2
((lp775
V,
p776
atp777
Rp778
sV.
p779
g2
((lp780
V!
p781
aV?
p782
aV.
p783
atp784
Rp785
sVTO
p786
g2
((lp787
Vto
p788
atp789
Rp790
sVPRP
p791
g2
((lp792
Vme
p793
aVwe
p794
aVhimself
p795
aVher
p796
aVI
p797
aVWe
p798
aVus
p799
aVit
p800
aVthem
p801
aVshe
p802
aVthey
p803
aVyou
p804
aVYou
p805
aVhe
p806
atp807
Rp808
sVRB
p809
g2
((lp810
Vall
p811
aValready
p812
aVsuddenly
p813
aVsoon
p814
aVsadie
p815
aVdown
p816
aValone
p817
aVas
p818
aVim
p819
aVghastly
p820
aVstill
p821
aVclearly
p822
aVeven
p823
aVmeekly
p824
aVlittle
p825
aVunited
p826
aVtheyll
p827
aVno
p828
aVmuch
p829
aVaway
p830
aVthere
p831
aVunwillingly
p832
aVfast
p833
aVyet
p834
aValmost
p835
aVonly
p836
aVstrange
p837
aVtoo
p838
aVabove
p839
aVinstead
p840
aVquietly
p841
aVreal
p842
aVthen
p843
aVsure
p844
aVmostly
p845
aVthough
p846
aVvery
p847
aVnever
p848
aVhere
p849
aVback
p850
aVsurely
p851
aVnearly
p852
aVnot
p853
aVnow
p854
aVgrandly
p855
aVoff
p856
aVsmartly
p857
aVwell
p858
aVup
p859
aVterribly
p860
aVso
p861
aVagain
p862
aVonce
p863
atp864
Rp865
sV-LRB-
p866
g2
((lp867
V(
p868
atp869
Rp870
sV:
p871
g2
((lp872
V--
p873
aV...
p874
aV;
p875
aV:
p876
aV-
p877
atp878
Rp879
sVNNS
p880
g2
((lp881
Vgone
p882
aVdolls,
p883
aVpeople
p884
aVme,
p885
aVyourself
p886
aVstates
p887
aVwar,
p888
aVmighty
p889
aVrooms
p890
aVviolet
p891
aVhell
p892
aVbirds
p893
aVmillions
p894
aVaffairs
p895
aVones
p896
aVDAYS
p897
aVapart,
p898
aVstretch
p899
aVthings
p900
aVworkers
p901
aVships
p902
aVmines
p903
aVorders
p904
aVunions
p905
aVbabies
p906
aVours
p907
aVeyes
p908
aVforces
p909
aVbeauty
p910
aVmen
p911
aVforgive
p912
aVhours
p913
aVstars
p914
aVhands
p915
aVsay-
p916
aVyears
p917
aVreceipts
p918
aVplants
p919
aVroom
p920
aVplaces
p921
aVoh
p922
aVplain
p923
aVdays
p924
aVyouth
p925
aVways
p926
aVfringes
p927
aVbanks
p928
aVtin,
p929
aVruin
p930
aVrent
p931
atp932
Rp933
sVNNP
p934
g2
((lp935
VOrleans
p936
aVPolice
p937
aVWould
p938
aVmans
p939
aVIrelands
p940
aVShare
p941
aVSince
p942
aVmeek.
p943
aVshore,
p944
aVRichmond
p945
aVAtlanta
p946
aVStation
p947
aVAfrika
p948
aVBabe
p949
aVNew
p950
aVGastonia
p951
aVmoren
p952
aVslow,
p953
aVNegros
p954
aVBe
p955
aVwonder.
p956
aVGood
p957
aVSomebody
p958
aVten
p959
aVMostly
p960
aVSadie
p961
aVMay
p962
aVsaid,
p963
aVPapa
p964
aVBut
p965
aVColumn
p966
aVmate
p967
aVFive
p968
aVAmerica
p969
aVBlack
p970
aVNot
p971
aVPioneers
p972
aVNovember
p973
aVNow
p974
aVPool
p975
aVWait
p976
aVBoy
p977
aVT.
p978
aVMa
p979
aVWhether
p980
aVOf
p981
aVAfricas
p982
aVsay:
p983
ag239
aVBooker
p984
aVPlayers
p985
aVNorth
p986
aVWoman
p987
aVsun.
p988
aVAmerica,
p989
aVWorld
p990
aVHarlan
p991
aVDemonstrate
p992
aVprecinct
p993
aVDream
p994
aVthey.
p995
aVSouth
p996
aVAnd
p997
aVGolden
p998
aVCrazy
p999
aVShovel
p1000
aVOld
p1001
aVTen
p1002
aVuntrue.
p1003
aVPolands
p1004
aVSome
p1005
aVNumber
p1006
aVEnglands
p1007
aVdilemma.
p1008
aVIm
p1009
aVIl
p1010
aVgrab
p1011
aVBucks
p1012
aVYes
p1013
aVMan
p1014
aVNegro
p1015
atp1016
Rp1017
sVVB
p1018
g2
((lp1019
Vgin.
p1020
aVschool.
p1021
aVbondsman
p1022
aVbring
p1023
aVkill
p1024
aVgo
p1025
aVrough
p1026
aVmesmerize,
p1027
aVaint
p1028
aVslow
p1029
aVheart-cup
p1030
aVruin
p1031
aVsend
p1032
aVchoose
p1033
aVbuild
p1034
aVmeant
p1035
aVbrown
p1036
aVmanage
p1037
aVsomebody
p1038
aVget
p1039
aVrise
p1040
aVredeem
p1041
aVsons
p1042
aVknow
p1043
aVfall
p1044
aVcollege,
p1045
aVwont
p1046
aVsmash
p1047
aVservant
p1048
aVdie
p1049
aVleave
p1050
aVcontinue
p1051
aVbecome
p1052
aVgrab
p1053
aVstraight.
p1054
aVset
p1055
aVme,
p1056
aVpulse
p1057
aVsin.
p1058
aVtouch
p1059
aVsee
p1060
aVhurries
p1061
aVoverturn
p1062
aVcome,
p1063
aVlovers
p1064
aVhungry.
p1065
aVlean
p1066
aVlabel
p1067
aVcrush
p1068
aVleap
p1069
aVproffer
p1070
aVbe
p1071
aVdo
p1072
aVuse
p1073
aVsprung
p1074
aVpleasant
p1075
aVcut
p1076
aVlet
p1077
aVsummer-gone
p1078
aVcome
p1079
aVwait
p1080
aVincline
p1081
aVdusty
p1082
aVjoke
p1083
aVill
p1084
aVconnive
p1085
aVkeep
p1086
aVswear
p1087
aVbeans
p1088
aVloud
p1089
aVthink
p1090
aVout.
p1091
aVrang
p1092
aVown
p1093
aVdont
p1094
aVsomeday
p1095
aVowe
p1096
aVyoud
p1097
aVkings
p1098
aVstare
p1099
aVguess
p1100
aVfight
p1101
aVlive
p1102
aVcall
p1103
aVlock
p1104
aVstrike
p1105
aVtell
p1106
aVstore
p1107
aVstarve
p1108
aVshare
p1109
aVJune.
p1110
aVgain
p1111
aVhold
p1112
aVeat
p1113
aVflx
p1114
aVwise
p1115
aVlook
p1116
aVdangerous
p1117
aVwork
p1118
aVsay
p1119
aVmaud
p1120
aVfreedom
p1121
aVmeet
p1122
aVdidnt
p1123
aVdeclare
p1124
aVgive
p1125
aVwhisper
p1126
aVgonn
p1127
aVam
p1128
aVcant
p1129
aVweve
p1130
aVreturn
p1131
aVcomes,
p1132
aVpallor
p1133
aVcabinets
p1134
aVend
p1135
aVwinter
p1136
aVpay
p1137
aVmake
p1138
aVtake
p1139
aVlate.
p1140
aVlamenting.
p1141
aVbegin
p1142
aVapprize
p1143
aVdrag
p1144
aVgon
p1145
aVIN
p1146
aVamerica
p1147
aVgrow
p1148
aVland
p1149
aVremember
p1150
aVcovet
p1151
aVdrive
p1152
aVface
p1153
aVrelief
p1154
aVallow
p1155
aVna
p1156
aVcool.
p1157
atp1158
Rp1159
sVWRB
p1160
g2
((lp1161
Vwhen
p1162
aVwhere
p1163
aVhow
p1164
atp1165
Rp1166
sVCC
p1167
g2
((lp1168
Vand
p1169
aVnor
p1170
aVor
p1171
aVbut
p1172
aVyet
p1173
atp1174
Rp1175
sVLS
p1176
g2
((lp1177
Vovermuch
p1178
aVforever
p1179
aVamerica
p1180
aVGREETINGS
p1181
aVarrest
p1182
atp1183
Rp1184
sVPDT
p1185
g2
((lp1186
Vall
p1187
atp1188
Rp1189
sVRBS
p1190
g2
((lp1191
Vmost
p1192
atp1193
Rp1194
sVRBR
p1195
g2
((lp1196
Vmore
p1197
atp1198
Rp1199
sVCD
p1200
g2
((lp1201
V90
p1202
aVseven
p1203
aVthree
p1204
aVtwo
p1205
aVone
p1206
atp1207
Rp1208
sVEX
p1209
g2
((lp1210
Vthere
p1211
atp1212
Rp1213
sVIN
p1214
g2
((lp1215
Vamong
p1216
aVbecause
p1217
aVover
p1218
aVdown
p1219
aVas
p1220
aVthrough
p1221
aVat
p1222
aVin
p1223
aVif
p1224
aVfrom
p1225
aVfor
p1226
aVsince
p1227
aVexcept
p1228
aVthat
p1229
aVunder
p1230
aVuntil
p1231
aVthough
p1232
aVbut
p1233
aVdespite
p1234
aVwith
p1235
aVby
p1236
aVon
p1237
aVabout
p1238
aVlike
p1239
aVof
p1240
aVinto
p1241
aVagainst
p1242
aVacross
p1243
aVwhile
p1244
aVwithout
p1245
aVso
p1246
atp1247
Rp1248
sVWP$
p1249
g2
((lp1250
Vwhose
p1251
atp1252
Rp1253
sVMD
p1254
g2
((lp1255
Vwould
p1256
aVshall
p1257
aVcould
p1258
aVshould
p1259
aVwill
p1260
aVcan
p1261
aVmight
p1262
aVmust
p1263
atp1264
Rp1265
sVNNPS
p1266
g2
((lp1267
VIndians
p1268
atp1269
Rp1270
sV-RRB-
p1271
g2
((lp1272
V)
p1273
atp1274
Rp1275
sVJJR
p1276
g2
((lp1277
Vlonger
p1278
atp1279
Rp1280
s.