(dp0
S'PRP$'
p1
c__builtin__
set
p2
((lp3
Vhis
p4
aVHer
p5
aVher
p6
aVTheir
p7
aVMy
p8
aVyour
p9
aVtheir
p10
aVHis
p11
aVits
p12
aVYour
p13
aVour
p14
aVmy
p15
aVIts
p16
atp17
Rp18
sS'VBG'
p19
g2
((lp20
Vwalking
p21
aVTasting
p22
aVbeing
p23
aVtalking
p24
aVGoing
p25
aVtwirling
p26
aVclutching
p27
aVconsenting
p28
aVhumming
p29
aVliking
p30
aVowning
p31
aVstanding
p32
aVliving
p33
aVfeeding
p34
aVdying
p35
aVtasting
p36
aVislanding
p37
aVShowing
p38
aVevoking
p39
aVgoing
p40
aVcrying
p41
aVfinding
p42
aVSing
p43
aVmeeting
p44
aVlamenting
p45
aVindrying
p46
aVcomplaining
p47
aVleaping
p48
aVsatisfying
p49
aVputting
p50
aVcoming
p51
aVsing
p52
aVtrying
p53
aVRemembering
p54
aVWalking
p55
aVcreaking
p56
aVHoping
p57
aVSeeking
p58
aVforgetting
p59
aVfeeling
p60
atp61
Rp62
sS'VBD'
p63
g2
((lp64
Vrang
p65
aVbartered
p66
aVthanked
p67
aVHad
p68
aVbore
p69
aVscraped
p70
aVsailed
p71
aVsaid
p72
aVdreamed
p73
aVopened
p74
aVwashed
p75
aVstayed
p76
aVanswered
p77
aVmuffed
p78
aVgot
p79
aVstruck
p80
aVwas
p81
aVsent
p82
aVtold
p83
aVused
p84
aVturned
p85
aVsold
p86
aVknew
p87
aVtook
p88
aVenthroned
p89
aVsmiled
p90
aVwanted
p91
aVhad
p92
aVwont
p93
aVmade
p94
aVdid
p95
aVlooked
p96
aVsupposed
p97
aVwere
p98
aVbelieved
p99
aVfound
p100
aVwent
p101
aVcame
p102
aVleft
p103
atp104
Rp105
sS'VBN'
p106
g2
((lp107
Vgone
p108
aVdreamed
p109
aVpointed
p110
aVturned
p111
aVheld
p112
aVused
p113
aVdone
p114
aVreached
p115
aVlinked
p116
aVrented
p117
aVbeen
p118
aVtoothed
p119
aVtaken
p120
aVours
p121
aVCome
p122
aVtold
p123
aVlived
p124
aVdeceived
p125
aVsprung
p126
aVcrushed
p127
aVdriven
p128
aVbroken
p129
aVTangled
p130
aVashamed
p131
aVput
p132
aVcrowned
p133
aVGrayed
p134
aVdied
p135
aVLeft
p136
aVmade
p137
aVmeek
p138
aVlost
p139
aVclenched
p140
aVbelieved
p141
aVbecome
p142
aVfried
p143
aVfitted
p144
aVleft
p145
atp146
Rp147
sS'VBP'
p148
g2
((lp149
Vmeant
p150
aVlaugh
p151
aVset
p152
aVshot
p153
aVdont
p154
aVstarve
p155
aVowe
p156
aVlock
p157
aVam
p158
aVmine
p159
aVpulse
p160
aVsee
p161
aVare
p162
aVhave
p163
aVgo
p164
aVrough
p165
aVseek
p166
aVwonder
p167
aVaint
p168
aVgon
p169
aVconnive
p170
aVstretch
p171
aVmake
p172
aVremember
p173
aVlean
p174
aVsend
p175
aVlabel
p176
aVlive
p177
aVswear
p178
aVchoose
p179
aVproffer
p180
aVget
p181
aVwait
p182
aVtell
p183
aVstore
p184
aVbreathe
p185
aVdo
p186
aVweve
p187
aVreturn
p188
aVresume
p189
aVbid
p190
aVtallness
p191
aVwhistle
p192
aVknow
p193
aVhear-
p194
aVsay-
p195
aVhold
p196
aVcome
p197
aVeat
p198
aVlook
p199
aVflx
p200
aVland
p201
aVincline
p202
aVTen
p203
aVwork
p204
aVcant
p205
aVkeep
p206
aVleave
p207
aVcontinue
p208
aVAre
p209
aVlearn
p210
aVthink
p211
aVsay
p212
aVhope
p213
atp214
Rp215
sS'WDT'
p216
g2
((lp217
Vthat
p218
atp219
Rp220
sS'JJ'
p221
g2
((lp222
VWhose
p223
aVscattered
p224
aVyellow
p225
aVcold
p226
aVfine
p227
aVso-long
p228
aVBe
p229
aVslow
p230
aVBig
p231
aVyoung
p232
aVwilling
p233
aVblack
p234
aVrich
p235
aVcool
p236
aVreal
p237
aVgood
p238
aVinsensitive
p239
aVinvoluntary
p240
aVbear
p241
aVearly
p242
aVtremulous
p243
aVgray
p244
aVstupid
p245
aVsmall
p246
aVmean
p247
aVuntrue
p248
aVold
p249
aVhard
p250
aVdead
p251
aVpast
p252
aVdear
p253
aVcasual
p254
aVgiddy
p255
aVGood
p256
aVa-wobble
p257
aVlukewarm
p258
aVnew
p259
aVred
p260
aVfull
p261
aVweak
p262
aVfree
p263
aVpleasant
p264
aVancient
p265
aVsummer-gone
p266
aVstrong
p267
aVdry
p268
aVgreat
p269
aVlast
p270
aVsister-now-today
p271
aVpatriotic
p272
aVgolden
p273
aVown
p274
aVsweet
p275
aVbrave
p276
aVgrassy
p277
aVlittle
p278
aVdevil
p279
aVjobless
p280
aVdue
p281
aVtiny
p282
aVlive
p283
aVbasic
p284
aVUm-huh
p285
aVwhite
p286
aVempty
p287
aVaware
p288
aVfine-toothed
p289
aVwarm
p290
aVfooled
p291
aVtrue
p292
aVTrouble
p293
aVLeft
p294
aVwise
p295
aVdangerous
p296
aVYoud
p297
aVPossessive
p298
aVthin
p299
aVbeautiful
p300
aVfalse
p301
aVdual
p302
aVcertain
p303
aVhigh
p304
aVpushed
p305
aVsingle
p306
aValone-as
p307
aVgenuine
p308
aVCoquettish
p309
aVable
p310
aVsame
p311
aVPrecinct
p312
aVnice
p313
aVpoor
p314
aVblue
p315
aVmaiden
p316
aVpolite
p317
aVwrong
p318
aVsuch
p319
aVdark
p320
aVdoor-
p321
aVlight
p322
aVhumble
p323
aVhungry
p324
aVthere_
p325
aVgreen
p326
aVclean
p327
aVincomplete
p328
atp329
Rp330
sS'WP'
p331
g2
((lp332
VWhat
p333
aVwho
p334
aVWho
p335
aVwhat
p336
atp337
Rp338
sS'VBZ'
p339
g2
((lp340
Vburns
p341
aVShuts
p342
aVknows
p343
aVdreamt
p344
aVis
p345
aVdraws
p346
aVbreaks
p347
aVkeep
p348
aVlies
p349
aVdoes
p350
aVours
p351
aVhurries
p352
aVhas
p353
aVdidnt
p354
aVIs
p355
aVcomes
p356
aVthats
p357
atp358
Rp359
sS'DT'
p360
g2
((lp361
Va
p362
aVA
p363
aVall
p364
aVany
p365
aVthat
p366
aVthis
p367
aVsome
p368
aVno
p369
aVSome
p370
aVAll
p371
aVan
p372
aVthese
p373
aVevery
p374
aVThat
p375
aVAnother
p376
aVeach
p377
aVEvery
p378
aVthe
p379
aVThese
p380
aVThe
p381
aVthose
p382
atp383
Rp384
sS'RP'
p385
g2
((lp386
Vdown
p387
aVout
p388
aVoff
p389
aVback
p390
aVup
p391
atp392
Rp393
sS'NN'
p394
g2
((lp395
Vlynching
p396
aVaffair
p397
aVendless
p398
aVoffice
p399
aVsummer
p400
aVmoney
p401
aVhalf
p402
aVdogmas
p403
aVdilemma
p404
aVrot
p405
aVcontinent
p406
aVhappiness
p407
aVmigration
p408
aVcrush
p409
aVdeath
p410
aVchain
p411
aVheart-cup
p412
aVpioneer
p413
aVflask
p414
aVname
p415
aVruin
p416
aVglee
p417
aVsky
p418
aVday
p419
aVwood
p420
aVblaze
p421
aVhomeland
p422
aVConsult
p423
aVfurniture
p424
aVEat
p425
aVhope
p426
aVWait
p427
aVroad
p428
aVwoman
p429
aVtime-clock
p430
aVsong
p431
aVrise
p432
aVdark
p433
aVfall
p434
aVpress
p435
aVworld
p436
aVapart
p437
aVhalo
p438
aVhall
p439
aVminute
p440
aVbread
p441
aVgray
p442
aVschool
p443
aVcrisp
p444
aVonion
p445
aVtobacco
p446
aVservant
p447
aVmint
p448
aVbrother
p449
aVheart
p450
aVeviction
p451
aVform
p452
aVlandlord
p453
aVnight
p454
aVhung
p455
aVtower
p456
aVbrick
p457
aVrack
p458
aVhusband
p459
aVMAN
p460
aVcrescendo
p461
aVhell
p462
aVhouse
p463
aVmind
p464
aVsoul
p465
aVpast
p466
aVlechery
p467
aVstreet
p468
aVcollege
p469
aVbed
p470
aVfist
p471
aVviolet
p472
aVhome
p473
aVsearch
p474
aVair
p475
aVchipware
p476
aVwonder
p477
aVserf
p478
aVSomebody
p479
aVprofit
p480
aVsun
p481
aVimmigrant
p482
aVtruth
p483
aVsung
p484
aVcell
p485
aVcase
p486
aVthroat
p487
aVmate
p488
aVToday
p489
aVabove
p490
aVTrue
p491
aVsteel
p492
aVlea
p493
aVEquality
p494
aVbelief
p495
aVpower
p496
aVspring
p497
aVsorrow
p498
aVveil
p499
aVplow
p500
aVcork
p501
aVwater
p502
aVdaring
p503
aVslow
p504
aVflatware
p505
aVTuskegee
p506
aVdissonant
p507
aVash
p508
aVtable
p509
aVgrab
p510
aVchange
p511
aVkitchen
p512
aVpower-
p513
aVfaith
p514
aVstone
p515
aVfeeling
p516
aVdusty
p517
aVfreedom
p518
aVthing
p519
aVsweat
p520
aVspit
p521
aVmisery
p522
aVdarker
p523
aVloud
p524
aVpuny
p525
aVblood
p526
aVaria
p527
aVlove
p528
aVgarbage
p529
aVbell
p530
aVcolor
p531
aVsweet
p532
aVbearing
p533
aVone
p534
aVnothing
p535
aVweather
p536
aVfrosty
p537
aVforce
p538
aVmessage
p539
aVtangle
p540
aVtomorrow
p541
aVstretch
p542
aVnow-
p543
aVbathroom
p544
aVcomb
p545
aVunion
p546
aVopportunity
p547
aVbite
p548
aVflag
p549
aVfight
p550
aVstealth
p551
aVcommunion
p552
aVdrowsy
p553
aVtime
p554
aVripening
p555
aVmaster
p556
aVToday-
p557
aVscheme
p558
aVcompany
p559
aVwar
p560
aVfriend
p561
aVGREETINGS
p562
aVsort
p563
aVlife
p564
aVdoor
p565
aVgay
p566
aVshare
p567
aVgovernment
p568
aVnobody
p569
aVworker
p570
aVbees-
p571
aVhurt
p572
aVgrief
p573
aVheat
p574
aVgain
p575
aVfurrow
p576
aVgin
p577
aVgold
p578
aVear
p579
aVruby
p580
aVeat
p581
aVchill
p582
aVsound
p583
aVnone
p584
aVword
p585
aVroom
p586
aVwreath
p587
aVshame
p588
aVgangster
p589
aVplain
p590
aVwork
p591
aVtree
p592
aVbitterness
p593
aVroof
p594
aVDesert
p595
aVyouth
p596
aVfuture
p597
aVtoday
p598
aVdregs
p599
aVmighty
p600
aVlatch
p601
aVdare
p602
aVTomorrow
p603
aVmistake
p604
aVremembering
p605
aVfirm
p606
aVPolice
p607
aVangel
p608
aVbrown
p609
aVtaste
p610
aVsoil
p611
aVstrand
p612
aVhead
p613
aVhoney
p614
aVneed
p615
aVrent
p616
aVrace
p617
aVStrike
p618
aVimpudent
p619
aVbondsman
p620
aVmouse
p621
aVrape
p622
aVgraft
p623
aVpallor
p624
aVhesitate
p625
aVstrength
p626
aVcourt
p627
aVwinter
p628
aVpay
p629
aVon-till
p630
aVmember
p631
aVtill
p632
aVstrange
p633
aVcardinal
p634
aVposter
p635
aVgate
p636
aVpast-
p637
aVsin
p638
aVweek
p639
aVlid
p640
aVTobacco
p641
aVslaverys
p642
aVbeauty
p643
aVpain
p644
aVleak
p645
aVswell
p646
aVtwirl
p647
aVloyalty
p648
aVrain
p649
aVhand
p650
aVmachine
p651
aVmouth
p652
aVplan
p653
aVbrotherhood
p654
aVpair
p655
aVFace
p656
aVDream
p657
aVman
p658
aVland
p659
aVwife
p660
aVoath
p661
aVlight
p662
aVfoundry
p663
aVdog
p664
aVfarmer
p665
aVface
p666
aVshore
p667
aVstupid
p668
aVrelief
p669
aVmother
p670
aVeverything
p671
aVdream
p672
aVgreed
p673
aVwine
p674
atp675
Rp676
sS')'
p677
g2
((lp678
V)
p679
atp680
Rp681
sS'('
p682
g2
((lp683
V(
p684
atp685
Rp686
sS','
p687
g2
((lp688
V,
p689
atp690
Rp691
sS'.'
p692
g2
((lp693
V!
p694
aV?
p695
aV.
p696
atp697
Rp698
sS'TO'
p699
g2
((lp700
Vto
p701
aVna
p702
aVTo
p703
atp704
Rp705
sS'PRP'
p706
g2
((lp707
Vme
p708
aVtorn
p709
aVwe
p710
aVhimself
p711
aVThey
p712
aVI
p713
aVshe
p714
aVyourself
p715
aVhe
p716
aVWe
p717
aVus
p718
aVit
p719
aVthem
p720
aVShe
p721
aVthey
p722
aVyou
p723
aVIt
p724
aVYou
p725
aVHe
p726
atp727
Rp728
sS'RB'
p729
g2
((lp730
VEven
p731
aVquietly
p732
aVplain
p733
aValmost
p734
aVghastly
p735
aVsoon
p736
aVgrandly
p737
aValone
p738
aVToo
p739
aVInstead
p740
aVcold
p741
aVstill
p742
aVclearly
p743
aVeven
p744
aVThen
p745
aVfast
p746
aVMostly
p747
aVno
p748
aVsomewhere
p749
aVaway
p750
aVthere
p751
aVunwillingly
p752
aVHere
p753
aVyet
p754
aVlate
p755
aVonly
p756
aVmuch
p757
aVSurely
p758
aVtoo
p759
aVNot
p760
aVinstead
p761
aVNow
p762
aVNearly
p763
aVthen
p764
aVForever
p765
aVmostly
p766
aVagain
p767
aVvery
p768
aVIll
p769
aVnever
p770
aVWell
p771
aVlong
p772
aVhere
p773
aVback
p774
aVSure
p775
aVsomewhat
p776
aVfall
p777
aVnot
p778
aVnow
p779
aVwont
p780
aVdown
p781
aVSeven
p782
aVAlready
p783
aVlonger
p784
aVahead
p785
aVSuddenly
p786
aVsmartly
p787
aVstraight
p788
aVwell
p789
aVtogether
p790
aVugly
p791
aVterribly
p792
aVso
p793
aVovermuch
p794
aVYet
p795
aVonce
p796
atp797
Rp798
sS':'
p799
g2
((lp800
V--
p801
aV...
p802
aV;
p803
aV:
p804
aV-
p805
atp806
Rp807
sS'NNS'
p808
g2
((lp809
Vchicks
p810
aVstays
p811
aVfingers
p812
aVrooms
p813
aVcrumbs
p814
aVmoren
p815
aVbirds
p816
aVlessons
p817
aVfactories
p818
aVtwinges
p819
aVships
p820
aVunions
p821
aVdreamers
p822
aVyesterdays
p823
aVours
p824
aVjars
p825
aVdolls
p826
aVtyrants
p827
aVforces
p828
aVmatters
p829
aVones
p830
aVhands
p831
aVyears
p832
aVwings
p833
aVdreams
p834
aVMechanics
p835
aVbeads
p836
aVlies
p837
aVpotatoes
p838
aVfringes
p839
aVsteps
p840
aVlife-ways
p841
aVclothes
p842
aVCoppers
p843
aVSharecroppers
p844
aVprayers
p845
aVseas
p846
aVcloths
p847
aVrivers
p848
aVListen
p849
aVlovers
p850
aVways
p851
aVmines
p852
aVMiners
p853
aVtwinklings
p854
aVdiamonds
p855
aVmen
p856
aVThats
p857
aVhours
p858
aVreceipts
p859
aVmans
p860
aVgrasses
p861
aVscars
p862
aVdays
p863
aVbeans
p864
aVHeadlines
p865
aVworkers
p866
aVthats
p867
aVfumes
p868
aVroads
p869
aVkings
p870
aVtools
p871
aVmillions
p872
aVdams
p873
aVpeople
p874
aVgirls
p875
aVarms
p876
aVbees
p877
aVstars
p878
aVlegs
p879
aVhalls
p880
aVmountains
p881
aVeyes
p882
aVmarbles
p883
aVtowers
p884
aVlives
p885
aVhopes
p886
aVflowers
p887
aVplants
p888
aVplaces
p889
aVFarmers
p890
aVstates
p891
aVorders
p892
aVaffairs
p893
aVcabinets
p894
aVthings
p895
aVleeches
p896
aVbabies
p897
aVpeoples
p898
aVmumbles
p899
aVdaughters
p900
aVbrothers
p901
aVsings
p902
aVPlayers
p903
aVServants
p904
aVvases
p905
aVsons
p906
aVflags
p907
aVbanks
p908
aVechoes
p909
aVsongs
p910
atp911
Rp912
sS'NNP'
p913
g2
((lp914
VWhose
p915
aVTheyll
p916
aVTakes
p917
aVStation
p918
aVWhite
p919
aVBe
p920
aVWoman
p921
aVNobodyll
p922
aVNEGRO
p923
aVHands
p924
aVJAIL
p925
aVAtlanta
p926
aVEat
p927
aVPool
p928
aVWait
p929
aVWhether
p930
aVDie
p931
aVHungry
p932
aVSmashes
p933
aVDinner
p934
aVBooker
p935
aVShop
p936
aVShovel
p937
aVShare
p938
aVSay
p939
aVAre
p940
aVJUDGE
p941
aVBucks
p942
aVMill
p943
aVAint
p944
aVPolands
p945
aVArrest
p946
aVAfrika
p947
aVNew
p948
aVBabe
p949
aVAmerica
p950
aVMust
p951
aVBoy
p952
aVMa
p953
aVAfricas
p954
aVO
p955
aVGo
p956
aVRace
p957
aVThin
p958
aVLandlord
p959
aVWere
p960
aVME
p961
aVCOUNTY
p962
aVNO
p963
aVRailroads
p964
aVDAYS
p965
aVHelpless
p966
aVMaud
p967
aVOrleans
p968
aVDeath
p969
aVHes
p970
aVIrelands
p971
aVPapa
p972
aVBeaten
p973
aVRichmond
p974
aVTill
p975
aVBlack
p976
aVNegro
p977
aVWay
p978
aVNorth
p979
aVSeparate
p980
aVJune
p981
aVDrag
p982
aVNegros
p983
aVLANDLORD
p984
aVGod
p985
aVNovember
p986
aVCome
p987
aVColumn
p988
aVPlain
p989
aVFREE
p990
aVHarlan
p991
aVWorld
p992
aVDemonstrate
p993
aVTENANT
p994
aVGolden
p995
aVCrazy
p996
aVOld
p997
aVDont
p998
aVGold
p999
aVHELD
p1000
aVNumber
p1001
aVSlow
p1002
aVTHREATENS
p1003
aVTin
p1004
aVBAIL
p1005
aVGIVES
p1006
aVSadie
p1007
aVTwang
p1008
aVJazz
p1009
aVLurk
p1010
aVFive
p1011
aVFlutter
p1012
aVMan
p1013
aVGastonia
p1014
aVIll
p1015
aVT.
p1016
aVIron
p1017
aVIN
p1018
aVRailway
p1019
aVSouth
p1020
aVPatrol
p1021
aVAm
p1022
aVEnglands
p1023
aVMay
p1024
aVIm
p1025
aVIl
p1026
atp1027
Rp1028
sS'VB'
p1029
g2
((lp1030
VThrow
p1031
aVforget
p1032
aVunited
p1033
aVbrown
p1034
aVdo
p1035
aVwhisper
p1036
aVgonn
p1037
aVmanage
p1038
aVdead
p1039
aVdrive
p1040
aVcovet
p1041
aVsay
p1042
aVruin
p1043
aVkill
p1044
aVhave
p1045
aVhell
p1046
aVtouch
p1047
aVclose
p1048
aVface
p1049
aVgo
p1050
aVstrike
p1051
aVstare
p1052
aVuse
p1053
aVslow
p1054
aVend
p1055
aVmake
p1056
aVgive
p1057
aVtin
p1058
aVgrow
p1059
aVleap
p1060
aVstain
p1061
aVLet
p1062
aVtake
p1063
aVdeclare
p1064
aVcall
p1065
aVhold
p1066
aVmesmerize
p1067
aVbuild
p1068
aVbe
p1069
aVbegin
p1070
aVallow
p1071
aVapprize
p1072
aVget
p1073
aVAnticipate
p1074
aVreach
p1075
aVguess
p1076
aVforgive
p1077
aVcut
p1078
aVredeem
p1079
aVwarm
p1080
aVlet
p1081
aVknow
p1082
aVfall
p1083
aVsing
p1084
aVoverturn
p1085
aVcome
p1086
aVeat
p1087
aVTalk
p1088
aVremember
p1089
aVdry
p1090
aVsmash
p1091
aVlook
p1092
aVbring
p1093
aVsomeday
p1094
aVdie
p1095
aVstammer
p1096
aVsee
p1097
aVkeep
p1098
aVheed
p1099
aVjoke
p1100
aVbecome
p1101
aVthink
p1102
aVmeet
p1103
atp1104
Rp1105
sS'WRB'
p1106
g2
((lp1107
VWhere
p1108
aVWhen
p1109
aVwhen
p1110
aVwhere
p1111
aVhow
p1112
atp1113
Rp1114
sS'CC'
p1115
g2
((lp1116
Vand
p1117
aVAnd
p1118
aVNor
p1119
aVbut
p1120
aVOr
p1121
aVBut
p1122
aVor
p1123
aVnor
p1124
atp1125
Rp1126
sS'PDT'
p1127
g2
((lp1128
Vgrab
p1129
aVall
p1130
aVAll
p1131
atp1132
Rp1133
sS'RBS'
p1134
g2
((lp1135
Vmost
p1136
aVmeekly
p1137
atp1138
Rp1139
sS'RBR'
p1140
g2
((lp1141
Vmore
p1142
atp1143
Rp1144
sS'CD'
p1145
g2
((lp1146
VTen
p1147
aVthree
p1148
aVTwo
p1149
aVtwo
p1150
aVOne
p1151
aV90
p1152
aVone
p1153
atp1154
Rp1155
sS'EX'
p1156
g2
((lp1157
VThere
p1158
aVthere
p1159
atp1160
Rp1161
sS'IN'
p1162
g2
((lp1163
Vamong
p1164
aVFrom
p1165
aVFor
p1166
aVover
p1167
aVSince
p1168
aVExcept
p1169
aVdown
p1170
aVas
p1171
aVthrough
p1172
aVat
p1173
aVin
p1174
aVinto
p1175
aVUntil
p1176
aVout
p1177
aVUnder
p1178
aVfrom
p1179
aVfor
p1180
aVThough
p1181
aVthough
p1182
aVwhile
p1183
aVif
p1184
aVWith
p1185
aVuntil
p1186
aVOn
p1187
aVLike
p1188
aVthat
p1189
aVOf
p1190
aVWhile
p1191
aVWithout
p1192
aVdespite
p1193
aVwith
p1194
aVby
p1195
aVon
p1196
aVabout
p1197
aVBecause
p1198
aVoff
p1199
aVlike
p1200
aVof
p1201
aVInto
p1202
aVThat
p1203
aVagainst
p1204
aVacross
p1205
aVAs
p1206
aVThrough
p1207
aVAt
p1208
aVIn
p1209
aVOut
p1210
aVIf
p1211
atp1212
Rp1213
sS'WP$'
p1214
g2
((lp1215
Vwhose
p1216
atp1217
Rp1218
sS'MD'
p1219
g2
((lp1220
VWill
p1221
aVWould
p1222
aVwould
p1223
aVshall
p1224
aVcould
p1225
aVshould
p1226
aVwill
p1227
aVcan
p1228
aVmust
p1229
aVmight
p1230
aVCould
p1231
aVCan
p1232
atp1233
Rp1234
sS'NNPS'
p1235
g2
((lp1236
VPioneers
p1237
aVIndians
p1238
atp1239
Rp1240
sS'JJS'
p1241
g2
((lp1242
Vcommonest
p1243
aVpoorest
p1244
aVlivingest
p1245
aVhonest
p1246
atp1247
Rp1248
sS'JJR'
p1249
g2
((lp1250
Vwinter
p1251
aVlighter
p1252
aVmore
p1253
atp1254
Rp1255
sS'UH'
p1256
g2
((lp1257
VYes
p1258
aVoh
p1259
aVyes
p1260
aVOh
p1261
atp1262
Rp1263
s.